 parser

 Timestamp is 348ffe1a (Thu Dec 11 09:52:10 1997)

 Preferred load address is 00400000

 Start         Length     Name                   Class
 0001:00000000 0000c8c6H .text                   CODE
 0002:00000000 000004bfH .rdata                  DATA
 0002:000004bf 00000000H .edata                  DATA
 0003:00000000 00000004H .CRT$XCA                DATA
 0003:00000004 00000004H .CRT$XCZ                DATA
 0003:00000008 00000004H .CRT$XIA                DATA
 0003:0000000c 00000008H .CRT$XIC                DATA
 0003:00000014 00000004H .CRT$XIZ                DATA
 0003:00000018 00000004H .CRT$XPA                DATA
 0003:0000001c 00000004H .CRT$XPX                DATA
 0003:00000020 00000004H .CRT$XPZ                DATA
 0003:00000024 00000004H .CRT$XTA                DATA
 0003:00000028 00000004H .CRT$XTZ                DATA
 0003:00000030 00005830H .data                   DATA
 0003:00005860 00001584H .bss                    DATA
 0004:00000000 00000014H .idata$2                DATA
 0004:00000014 00000014H .idata$3                DATA
 0004:00000028 000000c0H .idata$4                DATA
 0004:000000e8 000000c0H .idata$5                DATA
 0004:000001a8 00000346H .idata$6                DATA

  Address         Publics by Value              Rva+Base   Lib:Object

 0001:00000000       _main                      00401000 f par_pars.obj
 0001:00000440       _par_read_input            00401440 f par_pars.obj
 0001:00000480       _par_print_output          00401480 f par_pars.obj
 0001:000004a0       _par_initialize_variables  004014a0 f par_pars.obj
 0001:000004d0       _par_process_input         004014d0 f par_pars.obj
 0001:00000f60       _par_match_rule            00401f60 f par_pars.obj
 0001:000015e0       _par_perform_action        004025e0 f par_pars.obj
 0001:000017d0       _par_delete_string         004027d0 f par_pars.obj
 0001:000018b0       _par_replace_string        004028b0 f par_pars.obj
 0001:00001a40       _par_insert_string         00402a40 f par_pars.obj
 0001:00001b60       _par_insert_string_after   00402b60 f par_pars.obj
 0001:00001bf0       _par_insert_string_before  00402bf0 f par_pars.obj
 0001:00001d30       _par_save_string           00402d30 f par_pars.obj
 0001:00001da0       _par_dom_dict_search       00402da0 f par_pars.obj
 0001:00001f30       _par_look_ahead_dictionary 00402f30 f par_pars.obj
 0001:00001fa0       _par_search_for_word       00402fa0 f par_pars.obj
 0001:000021d0       _par_check_word_string     004031d0 f par_pars.obj
 0001:00002250       _par_build_string_from_rule 00403250 f par_pars.obj
 0001:00002490       _par_match_string          00403490 f par_pars.obj
 0001:00002770       _par_copy_string_data      00403770 f par_pars.obj
 0001:00002800       _par_convert_number        00403800 f par_pars.obj
 0001:00002830       _par_convert_number_new2   00403830 f par_pars.obj
 0001:00002860       _par_get_int_length        00403860 f par_pars.obj
 0001:00002890       _par_look_ahead            00403890 f par_pars.obj
 0001:00002b00       _par_copy_word_to_output   00403b00 f par_pars.obj
 0001:00002bf0       _par_skip_white_space      00403bf0 f par_pars.obj
 0001:00002d60       _par_print_rule_error      00403d60 f par_pars.obj
 0001:00002dd0       _par_match_standard        00403dd0 f par_pars.obj
 0001:00003140       _par_match_digits          00404140 f par_pars.obj
 0001:000034c0       _par_match_sets_with_ranges 004044c0 f par_pars.obj
 0001:000037d0       _par_match_set             004047d0 f par_pars.obj
 0001:00003a10       _fprintf                   00404a10 f LIBC:fprintf.obj
 0001:00003a50       ___initstdio               00404a50 f LIBC:_file.obj
 0001:00003b10       ___endstdio                00404b10 f LIBC:_file.obj
 0001:00003b30       _clock                     00404b30 f LIBC:clock.obj
 0001:00003b80       ___inittime                00404b80 f LIBC:clock.obj
 0001:00003b90       __fpmath                   00404b90 f LIBC:fpinit.obj
 0001:00003bb0       __fpclear                  00404bb0 f LIBC:fpinit.obj
 0001:00003bc0       __cfltcvt_init             00404bc0 f LIBC:fpinit.obj
 0001:00003c00       ___setfflag                00404c00 f LIBC:fpinit.obj
 0001:00003c10       __alloca_probe             00404c10   LIBC:chkstk.obj
 0001:00003c10       __chkstk                   00404c10   LIBC:chkstk.obj
 0001:00003c40       _fgets                     00404c40 f LIBC:fgets.obj
 0001:00003cc0       _printf                    00404cc0 f LIBC:printf.obj
 0001:00003d00       _atol                      00404d00 f LIBC:atox.obj
 0001:00003da0       _atoi                      00404da0 f LIBC:atox.obj
 0001:00003db0       __atoi64                   00404db0 f LIBC:atox.obj
 0001:00003e80       __strcmpi                  00404e80 f LIBC:stricmp.obj
 0001:00003e80       __stricmp                  00404e80 f LIBC:stricmp.obj
 0001:00003f10       _mainCRTStartup            00404f10 f LIBC:crt0.obj
 0001:00004030       __amsg_exit                00405030 f LIBC:crt0.obj
 0001:00004060       __stbuf                    00405060 f LIBC:_sftbuf.obj
 0001:00004100       __ftbuf                    00405100 f LIBC:_sftbuf.obj
 0001:00004160       __output                   00405160 f LIBC:output.obj
 0001:00004c20       __ioinit                   00405c20 f LIBC:ioinit.obj
 0001:00004e20       __ioterm                   00405e20 f LIBC:ioinit.obj
 0001:00004e50       _calloc                    00405e50 f LIBC:calloc.obj
 0001:00004ef0       __fcloseall                00405ef0 f LIBC:closeall.obj
 0001:00004f60       __cinit                    00405f60 f LIBC:crt0dat.obj
 0001:00004f90       _exit                      00405f90 f LIBC:crt0dat.obj
 0001:00004fb0       __exit                     00405fb0 f LIBC:crt0dat.obj
 0001:00004fd0       __cexit                    00405fd0 f LIBC:crt0dat.obj
 0001:00004fe0       __c_exit                   00405fe0 f LIBC:crt0dat.obj
 0001:000050c0       _fflush                    004060c0 f LIBC:fflush.obj
 0001:00005110       __flush                    00406110 f LIBC:fflush.obj
 0001:00005180       __flushall                 00406180 f LIBC:fflush.obj
 0001:00005210       __ftime                    00406210 f LIBC:ftime.obj
 0001:000052d0       __setdefaultprecision      004062d0 f LIBC:fp8.obj
 0001:000052f0       __ms_p5_test_fdiv          004062f0 f LIBC:testfdiv.obj
 0001:00005340       __ms_p5_mp_test_fdiv       00406340 f LIBC:testfdiv.obj
 0001:00005370       __forcdecpt                00406370 f LIBC:cvt.obj
 0001:000053d0       __cropzeros                004063d0 f LIBC:cvt.obj
 0001:00005440       __positive                 00406440 f LIBC:cvt.obj
 0001:00005460       __fassign                  00406460 f LIBC:cvt.obj
 0001:000054c0       __cftoe                    004064c0 f LIBC:cvt.obj
 0001:00005600       __cftof                    00406600 f LIBC:cvt.obj
 0001:00005700       __cftog                    00406700 f LIBC:cvt.obj
 0001:00005810       __cfltcvt                  00406810 f LIBC:cvt.obj
 0001:000058b0       __filbuf                   004068b0 f LIBC:_filbuf.obj
 0001:000059a0       __isctype                  004069a0 f LIBC:isctype.obj
 0001:00005a40       __allmul                   00406a40 f LIBC:llmul.obj
 0001:00005a80       __tolower                  00406a80 f LIBC:tolower.obj
 0001:00005a90       _tolower                   00406a90 f LIBC:tolower.obj
 0001:00005b90       __XcptFilter               00406b90 f LIBC:winxfltr.obj
 0001:00005d20       __setenvp                  00406d20 f LIBC:stdenvp.obj
 0001:00005e10       __setargv                  00406e10 f LIBC:stdargv.obj
 0001:000060c0       ___crtGetEnvironmentStringsW 004070c0 f LIBC:aw_env.obj
 0001:000062c0       ___crtGetEnvironmentStringsA 004072c0 f LIBC:aw_env.obj
 0001:00006420       __setmbcp                  00407420 f LIBC:mbctype.obj
 0001:000066f0       __getmbcp                  004076f0 f LIBC:mbctype.obj
 0001:00006700       ___initmbctable            00407700 f LIBC:mbctype.obj
 0001:00006710       __heap_init                00407710 f LIBC:heapinit.obj
 0001:00006750       __heap_term                00407750 f LIBC:heapinit.obj
 0001:00006790       __global_unwind2           00407790 f LIBC:exsup.obj
 0001:000067d2       __local_unwind2            004077d2 f LIBC:exsup.obj
 0001:0000682a       __NLG_Return2              0040782a   LIBC:exsup.obj
 0001:0000683a       __abnormal_termination     0040783a f LIBC:exsup.obj
 0001:0000685d       __NLG_Notify1              0040785d f LIBC:exsup.obj
 0001:00006866       __NLG_Notify               00407866 f LIBC:exsup.obj
 0001:00006879       __NLG_Dispatch             00407879   LIBC:exsup.obj
 0001:00006888       __except_handler3          00407888 f LIBC:exsup3.obj
 0001:00006945       __seh_longjmp_unwind@4     00407945 f LIBC:exsup3.obj
 0001:00006960       __FF_MSGBANNER             00407960 f LIBC:crt0msg.obj
 0001:000069a0       __NMSG_WRITE               004079a0 f LIBC:crt0msg.obj
 0001:00006b80       __GET_RTERRMSG             00407b80 f LIBC:crt0msg.obj
 0001:00006bb0       _malloc                    00407bb0 f LIBC:malloc.obj
 0001:00006bd0       __nh_malloc                00407bd0 f LIBC:malloc.obj
 0001:00006c20       __heap_alloc               00407c20 f LIBC:malloc.obj
 0001:00006c60       __isatty                   00407c60 f LIBC:isatty.obj
 0001:00006c90       _wctomb                    00407c90 f LIBC:wctomb.obj
 0001:00006d10       __aulldiv                  00407d10 f LIBC:ulldiv.obj
 0001:00006d80       __aullrem                  00407d80 f LIBC:ullrem.obj
 0001:00006e00       __flsbuf                   00407e00 f LIBC:_flsbuf.obj
 0001:00006f30       _free                      00407f30 f LIBC:free.obj
 0001:00006f80       ?_set_new_handler@@YAP6AHI@ZP6AHI@Z@Z 00407f80 f LIBC:handler.obj
 0001:00006f90       ?_query_new_handler@@YAP6AHI@ZXZ 00407f90 f LIBC:handler.obj
 0001:00006fa0       __callnewh                 00407fa0 f LIBC:handler.obj
 0001:00006fc0       __get_sbh_threshold        00407fc0 f LIBC:sbheap.obj
 0001:00006fd0       __set_sbh_threshold        00407fd0 f LIBC:sbheap.obj
 0001:00006ff0       ___sbh_new_region          00407ff0 f LIBC:sbheap.obj
 0001:00007160       ___sbh_release_region      00408160 f LIBC:sbheap.obj
 0001:000071c0       ___sbh_decommit_pages      004081c0 f LIBC:sbheap.obj
 0001:00007290       ___sbh_find_block          00408290 f LIBC:sbheap.obj
 0001:000072f0       ___sbh_free_block          004082f0 f LIBC:sbheap.obj
 0001:00007350       ___sbh_alloc_block         00408350 f LIBC:sbheap.obj
 0001:00007590       ___sbh_alloc_block_from_page 00408590 f LIBC:sbheap.obj
 0001:00007710       ___sbh_resize_block        00408710 f LIBC:sbheap.obj
 0001:000077e0       ___sbh_heap_check          004087e0 f LIBC:sbheap.obj
 0001:000079b0       _fclose                    004089b0 f LIBC:fclose.obj
 0001:00007a30       __commit                   00408a30 f LIBC:commit.obj
 0001:00007a90       __write                    00408a90 f LIBC:write.obj
 0001:00007cb0       _mktime                    00408cb0 f LIBC:mktime.obj
 0001:00007cc0       __mkgmtime                 00408cc0 f LIBC:mktime.obj
 0001:00007f10       ___tzset                   00408f10 f LIBC:tzset.obj
 0001:00007f30       __tzset                    00408f30 f LIBC:tzset.obj
 0001:000081e0       __isindst                  004091e0 f LIBC:tzset.obj
 0001:000085f0       __statusfp                 004095f0 f LIBC:ieee87.obj
 0001:00008610       __clearfp                  00409610 f LIBC:ieee87.obj
 0001:00008630       __control87                00409630 f LIBC:ieee87.obj
 0001:00008670       __controlfp                00409670 f LIBC:ieee87.obj
 0001:00008690       __fpreset                  00409690 f LIBC:ieee87.obj
 0001:00008830       __ZeroTail                 00409830 f LIBC:intrncvt.obj
 0001:000088a0       __IncMan                   004098a0 f LIBC:intrncvt.obj
 0001:00008910       __RoundMan                 00409910 f LIBC:intrncvt.obj
 0001:000089b0       __CopyMan                  004099b0 f LIBC:intrncvt.obj
 0001:000089d0       __FillZeroMan              004099d0 f LIBC:intrncvt.obj
 0001:000089e0       __IsZeroMan                004099e0 f LIBC:intrncvt.obj
 0001:00008a00       __ShrMan                   00409a00 f LIBC:intrncvt.obj
 0001:00008ac0       __ld12cvt                  00409ac0 f LIBC:intrncvt.obj
 0001:00008c90       __ld12tod                  00409c90 f LIBC:intrncvt.obj
 0001:00008cb0       __ld12tof                  00409cb0 f LIBC:intrncvt.obj
 0001:00008cd0       __ld12told                 00409cd0 f LIBC:intrncvt.obj
 0001:00008d50       __atodbl                   00409d50 f LIBC:intrncvt.obj
 0001:00008d90       __atoldbl                  00409d90 f LIBC:intrncvt.obj
 0001:00008dd0       __atoflt                   00409dd0 f LIBC:intrncvt.obj
 0001:00008e10       __fptostr                  00409e10 f LIBC:_fptostr.obj
 0001:00008eb0       __fltout                   00409eb0 f LIBC:cfout.obj
 0001:00008f30       ___dtold                   00409f30 f LIBC:cfout.obj
 0001:00008ff0       _memmove                   00409ff0 f LIBC:memmove.obj
 0001:00009330       __fptrap                   0040a330 f LIBC:crt0fp.obj
 0001:00009340       __read                     0040a340 f LIBC:read.obj
 0001:000095a0       __getbuf                   0040a5a0 f LIBC:_getbuf.obj
 0001:00009600       ___crtGetStringTypeW       0040a600 f LIBC:aw_str.obj
 0001:00009790       ___crtGetStringTypeA       0040a790 f LIBC:aw_str.obj
 0001:000098c0       ___crtLCMapStringW         0040a8c0 f LIBC:aw_map.obj
 0001:00009b10       ___crtLCMapStringA         0040ab10 f LIBC:aw_map.obj
 0001:00009d60       _wcslen                    0040ad60 f LIBC:wcslen.obj
 0001:00009d80       ___crtMessageBoxA          0040ad80 f LIBC:crtmbox.obj
 0001:00009e10       _strncpy                   0040ae10 f LIBC:strncpy.obj
 0001:00009f10       __lseek                    0040af10 f LIBC:lseek.obj
 0001:00009fd0       __close                    0040afd0 f LIBC:close.obj
 0001:0000a0b0       __freebuf                  0040b0b0 f LIBC:_freebuf.obj
 0001:0000a0f0       __alloc_osfhnd             0040b0f0 f LIBC:osfinfo.obj
 0001:0000a1b0       __set_osfhnd               0040b1b0 f LIBC:osfinfo.obj
 0001:0000a260       __free_osfhnd              0040b260 f LIBC:osfinfo.obj
 0001:0000a300       __get_osfhandle            0040b300 f LIBC:osfinfo.obj
 0001:0000a350       __open_osfhandle           0040b350 f LIBC:osfinfo.obj
 0001:0000a3f0       __dosmaperr                0040b3f0 f LIBC:dosmap.obj
 0001:0000a460       _gmtime                    0040b460 f LIBC:gmtime.obj
 0001:0000a5c0       _localtime                 0040b5c0 f LIBC:localtim.obj
 0001:0000a7b0       _wcstombs                  0040b7b0 f LIBC:wcstombs.obj
 0001:0000a9e0       _getenv                    0040b9e0 f LIBC:getenv.obj
 0001:0000aa70       ___addl                    0040ba70 f LIBC:mantold.obj
 0001:0000aaa0       ___add_12                  0040baa0 f LIBC:mantold.obj
 0001:0000ab10       ___shl_12                  0040bb10 f LIBC:mantold.obj
 0001:0000ab40       ___shr_12                  0040bb40 f LIBC:mantold.obj
 0001:0000ab70       ___mtold12                 0040bb70 f LIBC:mantold.obj
 0001:0000ac70       ___strgtold12              0040bc70 f LIBC:strgtold.obj
 0001:0000b400       ___STRINGTOLD              0040c400 f LIBC:strgtold.obj
 0001:0000b450       _$I10_OUTPUT               0040c450 f LIBC:x10fout.obj
 0001:0000b7e0       __mbsnbicoll               0040c7e0 f LIBC:mbsnbico.obj
 0001:0000b820       ___wtomb_environ           0040c820 f LIBC:wtombenv.obj
 0001:0000b8a0       ___ld12mul                 0040c8a0 f LIBC:tenpow.obj
 0001:0000bb60       ___multtenpow12            0040cb60 f LIBC:tenpow.obj
 0001:0000bbf0       ___crtCompareStringW       0040cbf0 f LIBC:aw_cmp.obj
 0001:0000be40       ___crtCompareStringA       0040ce40 f LIBC:aw_cmp.obj
 0001:0000c140       ___crtsetenv               0040d140 f LIBC:setenv.obj
 0001:0000c440       _realloc                   0040d440 f LIBC:realloc.obj
 0001:0000c5e0       __mbschr                   0040d5e0 f LIBC:mbschr.obj
 0001:0000c690       __strdup                   0040d690 f LIBC:strdup.obj
 0001:0000c6f0       _strchr                    0040d6f0 f LIBC:strchr.obj
 0001:0000c6f6       ___from_strstr_to_strchr   0040d6f6   LIBC:strchr.obj
 0001:0000c7ac       _GetCommandLineA@0         0040d7ac f kernel32:KERNEL32.dll
 0001:0000c7b2       _GetVersion@0              0040d7b2 f kernel32:KERNEL32.dll
 0001:0000c7b8       _SetHandleCount@4          0040d7b8 f kernel32:KERNEL32.dll
 0001:0000c7be       _GetStdHandle@4            0040d7be f kernel32:KERNEL32.dll
 0001:0000c7c4       _GetFileType@4             0040d7c4 f kernel32:KERNEL32.dll
 0001:0000c7ca       _GetStartupInfoA@4         0040d7ca f kernel32:KERNEL32.dll
 0001:0000c7d0       _HeapAlloc@12              0040d7d0 f kernel32:KERNEL32.dll
 0001:0000c7d6       _ExitProcess@4             0040d7d6 f kernel32:KERNEL32.dll
 0001:0000c7dc       _TerminateProcess@8        0040d7dc f kernel32:KERNEL32.dll
 0001:0000c7e2       _GetCurrentProcess@0       0040d7e2 f kernel32:KERNEL32.dll
 0001:0000c7e8       _GetLocalTime@4            0040d7e8 f kernel32:KERNEL32.dll
 0001:0000c7ee       _GetProcAddress@8          0040d7ee f kernel32:KERNEL32.dll
 0001:0000c7f4       _GetModuleHandleA@4        0040d7f4 f kernel32:KERNEL32.dll
 0001:0000c7fa       _UnhandledExceptionFilter@4 0040d7fa f kernel32:KERNEL32.dll
 0001:0000c800       _GetModuleFileNameA@12     0040d800 f kernel32:KERNEL32.dll
 0001:0000c806       _FreeEnvironmentStringsA@4 0040d806 f kernel32:KERNEL32.dll
 0001:0000c80c       _MultiByteToWideChar@24    0040d80c f kernel32:KERNEL32.dll
 0001:0000c812       _FreeEnvironmentStringsW@4 0040d812 f kernel32:KERNEL32.dll
 0001:0000c818       _GetEnvironmentStrings@0   0040d818 f kernel32:KERNEL32.dll
 0001:0000c81e       _GetEnvironmentStringsW@0  0040d81e f kernel32:KERNEL32.dll
 0001:0000c824       _WideCharToMultiByte@32    0040d824 f kernel32:KERNEL32.dll
 0001:0000c82a       _GetCPInfo@8               0040d82a f kernel32:KERNEL32.dll
 0001:0000c830       _GetACP@0                  0040d830 f kernel32:KERNEL32.dll
 0001:0000c836       _GetOEMCP@0                0040d836 f kernel32:KERNEL32.dll
 0001:0000c83c       _HeapDestroy@4             0040d83c f kernel32:KERNEL32.dll
 0001:0000c842       _HeapCreate@12             0040d842 f kernel32:KERNEL32.dll
 0001:0000c848       _VirtualFree@12            0040d848 f kernel32:KERNEL32.dll
 0001:0000c84e       _RtlUnwind@16              0040d84e f kernel32:KERNEL32.dll
 0001:0000c854       _WriteFile@20              0040d854 f kernel32:KERNEL32.dll
 0001:0000c85a       _HeapFree@12               0040d85a f kernel32:KERNEL32.dll
 0001:0000c860       _VirtualAlloc@16           0040d860 f kernel32:KERNEL32.dll
 0001:0000c866       _GetLastError@0            0040d866 f kernel32:KERNEL32.dll
 0001:0000c86c       _FlushFileBuffers@4        0040d86c f kernel32:KERNEL32.dll
 0001:0000c872       _GetTimeZoneInformation@4  0040d872 f kernel32:KERNEL32.dll
 0001:0000c878       _ReadFile@20               0040d878 f kernel32:KERNEL32.dll
 0001:0000c87e       _GetStringTypeA@20         0040d87e f kernel32:KERNEL32.dll
 0001:0000c884       _GetStringTypeW@16         0040d884 f kernel32:KERNEL32.dll
 0001:0000c88a       _LCMapStringA@24           0040d88a f kernel32:KERNEL32.dll
 0001:0000c890       _LCMapStringW@24           0040d890 f kernel32:KERNEL32.dll
 0001:0000c896       _LoadLibraryA@4            0040d896 f kernel32:KERNEL32.dll
 0001:0000c89c       _SetFilePointer@16         0040d89c f kernel32:KERNEL32.dll
 0001:0000c8a2       _CloseHandle@4             0040d8a2 f kernel32:KERNEL32.dll
 0001:0000c8a8       _SetStdHandle@8            0040d8a8 f kernel32:KERNEL32.dll
 0001:0000c8ae       _CompareStringA@24         0040d8ae f kernel32:KERNEL32.dll
 0001:0000c8b4       _CompareStringW@24         0040d8b4 f kernel32:KERNEL32.dll
 0001:0000c8ba       _SetEnvironmentVariableA@8 0040d8ba f kernel32:KERNEL32.dll
 0001:0000c8c0       _HeapReAlloc@16            0040d8c0 f kernel32:KERNEL32.dll
 0002:00000070       ___lookuptable             0040e070   LIBC:output.obj
 0002:000000cc       ??_C@_1O@POHA@?$AA?$CI?$AAn?$AAu?$AAl?$AAl?$AA?$CJ?$AA?$AA@ 0040e0cc   LIBC:output.obj
 0002:000000dc       ??_C@_06ONKE@?$CInull?$CJ?$AA@ 0040e0dc   LIBC:output.obj
 0002:000000f0       ??_C@_0BK@JEGK@IsProcessorFeaturePresent?$AA@ 0040e0f0   LIBC:testfdiv.obj
 0002:0000010c       ??_C@_08OBID@KERNEL32?$AA@ 0040e10c   LIBC:testfdiv.obj
 0002:00000120       ??_C@_05OFLO@e?$CL000?$AA@ 0040e120   LIBC:cvt.obj
 0002:00000128       ??_C@_0P@GGKG@runtime?5error?5?$AA@ 0040e128   LIBC:crt0msg.obj
 0002:00000138       ??_C@_02PIMC@?$AN?6?$AA@   0040e138   LIBC:crt0msg.obj
 0002:0000013c       ??_C@_0O@DELO@TLOSS?5error?$AN?6?$AA@ 0040e13c   LIBC:crt0msg.obj
 0002:0000014c       ??_C@_0N@OMLL@SING?5error?$AN?6?$AA@ 0040e14c   LIBC:crt0msg.obj
 0002:0000015c       ??_C@_0P@OJAK@DOMAIN?5error?$AN?6?$AA@ 0040e15c   LIBC:crt0msg.obj
 0002:0000016c       ??_C@_0CF@EANP@R6028?$AN?6?9?5unable?5to?5initialize?5he@ 0040e16c   LIBC:crt0msg.obj
 0002:00000194       ??_C@_0DF@ECGN@R6027?$AN?6?9?5not?5enough?5space?5for?5lo@ 0040e194   LIBC:crt0msg.obj
 0002:000001cc       ??_C@_0DF@FKAC@R6026?$AN?6?9?5not?5enough?5space?5for?5st@ 0040e1cc   LIBC:crt0msg.obj
 0002:00000204       ??_C@_0CG@DPMN@R6025?$AN?6?9?5pure?5virtual?5function?5c@ 0040e204   LIBC:crt0msg.obj
 0002:0000022c       ??_C@_0DF@CKIP@R6024?$AN?6?9?5not?5enough?5space?5for?5_o@ 0040e22c   LIBC:crt0msg.obj
 0002:00000264       ??_C@_0CJ@GGOE@R6019?$AN?6?9?5unable?5to?5open?5console?5@ 0040e264   LIBC:crt0msg.obj
 0002:00000290       ??_C@_0CB@LBOB@R6018?$AN?6?9?5unexpected?5heap?5error?$AN?6@ 0040e290   LIBC:crt0msg.obj
 0002:000002b4       ??_C@_0CN@FPEG@R6017?$AN?6?9?5unexpected?5multithread?5@ 0040e2b4   LIBC:crt0msg.obj
 0002:000002e4       ??_C@_0CM@OBIC@R6016?$AN?6?9?5not?5enough?5space?5for?5th@ 0040e2e4   LIBC:crt0msg.obj
 0002:00000310       ??_C@_0CB@HPAL@?$AN?6abnormal?5program?5termination?$AN?6@ 0040e310   LIBC:crt0msg.obj
 0002:00000334       ??_C@_0CM@JOOB@R6009?$AN?6?9?5not?5enough?5space?5for?5en@ 0040e334   LIBC:crt0msg.obj
 0002:00000360       ??_C@_0CK@OIBL@R6008?$AN?6?9?5not?5enough?5space?5for?5ar@ 0040e360   LIBC:crt0msg.obj
 0002:0000038c       ??_C@_0CF@LKPB@R6002?$AN?6?9?5floating?5point?5not?5load@ 0040e38c   LIBC:crt0msg.obj
 0002:000003b4       ??_C@_0CF@JPDF@Microsoft?5Visual?5C?$CL?$CL?5Runtime?5Lib@ 0040e3b4   LIBC:crt0msg.obj
 0002:000003dc       ??_C@_02JJJH@?6?6?$AA@     0040e3dc   LIBC:crt0msg.obj
 0002:000003e0       ??_C@_0BK@DEOK@Runtime?5Error?$CB?6?6Program?3?5?$AA@ 0040e3e0   LIBC:crt0msg.obj
 0002:000003fc       ??_C@_03NAME@?4?4?4?$AA@   0040e3fc   LIBC:crt0msg.obj
 0002:00000400       ??_C@_0BH@NNCD@?$DMprogram?5name?5unknown?$DO?$AA@ 0040e400   LIBC:crt0msg.obj
 0002:00000418       ___dnames                  0040e418   LIBC:timeset.obj
 0002:00000430       ___mnames                  0040e430   LIBC:timeset.obj
 0002:00000458       ??_C@_02JHIA@TZ?$AA@       0040e458   LIBC:tzset.obj
 0002:0000045c       ??_C@_01A@?$AA?$AA@        0040e45c   LIBC:aw_str.obj
 0002:00000460       ??_C@_13A@?$AA?$AA?$AA?$AA@ 0040e460   LIBC:aw_str.obj
 0002:00000464       ??_C@_0BD@NJFP@GetLastActivePopup?$AA@ 0040e464   LIBC:crtmbox.obj
 0002:00000478       ??_C@_0BA@GILI@GetActiveWindow?$AA@ 0040e478   LIBC:crtmbox.obj
 0002:00000488       ??_C@_0M@PKCK@MessageBoxA?$AA@ 0040e488   LIBC:crtmbox.obj
 0002:00000494       ??_C@_0L@HKL@user32?4dll?$AA@ 0040e494   LIBC:crtmbox.obj
 0002:000004a0       ??_C@_06PAPI@1?$CDQNAN?$AA@ 0040e4a0   LIBC:x10fout.obj
 0002:000004a8       ??_C@_05BGNL@1?$CDINF?$AA@ 0040e4a8   LIBC:x10fout.obj
 0002:000004b0       ??_C@_05EDPF@1?$CDIND?$AA@ 0040e4b0   LIBC:x10fout.obj
 0002:000004b8       ??_C@_06LKFM@1?$CDSNAN?$AA@ 0040e4b8   LIBC:x10fout.obj
 0003:00000000       ___xc_a                    0040f000   LIBC:crt0init.obj
 0003:00000004       ___xc_z                    0040f004   LIBC:crt0init.obj
 0003:00000008       ___xi_a                    0040f008   LIBC:crt0init.obj
 0003:00000014       ___xi_z                    0040f014   LIBC:crt0init.obj
 0003:00000018       ___xp_a                    0040f018   LIBC:crt0init.obj
 0003:00000020       ___xp_z                    0040f020   LIBC:crt0init.obj
 0003:00000024       ___xt_a                    0040f024   LIBC:crt0init.obj
 0003:00000028       ___xt_z                    0040f028   LIBC:crt0init.obj
 0003:00000030       _parser_char_types         0040f030   par_char.obj
 0003:00000238       _par_lower                 0040f238   par_char.obj
 0003:00000338       _par_upper                 0040f338   par_char.obj
 0003:00000438       _par_illegal_cluster       0040f438   par_char.obj
 0003:000004a8       _char_type_table           0040f4a8   par_pars.obj
 0003:000006ac       ??_C@_0EB@PJJM@par_set_return_level?$DLtoo?5many?5le@ 0040f6ac   par_pars.obj
 0003:000006f0       ??_C@_0DP@EDMP@par_get_return_level?$DLno?5place?5to@ 0040f6f0   par_pars.obj
 0003:00000730       _num_rule_sections         0040f730   par_test.obj
 0003:00000734       _rule_sections             0040f734   par_test.obj
 0003:0000073c       _num_rules                 0040f73c   par_test.obj
 0003:00000740       _rule_index_table          0040f740   par_test.obj
 0003:00000820       _rule_data_table           0040f820   par_test.obj
 0003:00001c48       _dict_point                00410c48   par_test.obj
 0003:00001ca0       _dict_index_table          00410ca0   par_test.obj
 0003:00001f10       _dict_data_table           00410f10   par_test.obj
 0003:00002b98       __iob                      00411b98   LIBC:_file.obj
 0003:00002e18       __fltused                  00411e18   LIBC:fpinit.obj
 0003:00002e1c       __ldused                   00411e1c   LIBC:fpinit.obj
 0003:00002e20       __FPinit                   00411e20   LIBC:fpinit.obj
 0003:00002e24       __FPmtinit                 00411e24   LIBC:fpinit.obj
 0003:00002e28       __FPmtterm                 00411e28   LIBC:fpinit.obj
 0003:00002e30       __aexit_rtn                00411e30   LIBC:crt0.obj
 0003:00002e34       ___app_type                00411e34   LIBC:crt0.obj
 0003:00002e38       ___nullstring              00411e38   LIBC:output.obj
 0003:00002e3c       ___wnullstring             00411e3c   LIBC:output.obj
 0003:00002e40       ___badioinfo               00411e40   LIBC:ioinit.obj
 0003:00002e48       __cfltcvt_tab              00411e48   LIBC:cmiscdat.obj
 0003:00002e60       __pctype                   00411e60   LIBC:ctype.obj
 0003:00002e64       __pwctype                  00411e64   LIBC:ctype.obj
 0003:00002e68       __ctype                    00411e68   LIBC:ctype.obj
 0003:0000306c       ___mb_cur_max              0041206c   LIBC:nlsdata1.obj
 0003:00003070       ___decimal_point           00412070   LIBC:nlsdata1.obj
 0003:00003074       ___decimal_point_length    00412074   LIBC:nlsdata1.obj
 0003:00003080       __XcptActTab               00412080   LIBC:winxfltr.obj
 0003:000030f8       __First_FPE_Indx           004120f8   LIBC:winxfltr.obj
 0003:000030fc       __Num_FPE                  004120fc   LIBC:winxfltr.obj
 0003:00003100       __XcptActTabCount          00412100   LIBC:winxfltr.obj
 0003:00003104       __fpecode                  00412104   LIBC:winxfltr.obj
 0003:00003200       __amblksiz                 00412200   LIBC:heapinit.obj
 0003:00003204       __NLG_Destination          00412204   LIBC:exsup.obj
 0003:000032b0       ___small_block_heap        004122b0   LIBC:sbheap.obj
 0003:000052d4       ___sbh_threshold           004142d4   LIBC:sbheap.obj
 0003:000052d8       __timezone                 004142d8   LIBC:timeset.obj
 0003:000052dc       __daylight                 004142dc   LIBC:timeset.obj
 0003:000052e0       __dstbias                  004142e0   LIBC:timeset.obj
 0003:00005368       __tzname                   00414368   LIBC:timeset.obj
 0003:00005528       __lpdays                   00414528   LIBC:days.obj
 0003:00005560       __days                     00414560   LIBC:days.obj
 0003:00005598       __pow10pos                 00414598   LIBC:constpow.obj
 0003:000056f8       __pow10neg                 004146f8   LIBC:constpow.obj
 0003:00005860       __cflush                   00414860   LIBC:_file.obj
 0003:00005868       ___itimeb                  00414868   LIBC:clock.obj
 0003:00005874       ___fastflag                00414874   LIBC:fpinit.obj
 0003:00005878       __adjust_fdiv              00414878   LIBC:fpinit.obj
 0003:0000587c       __aenvptr                  0041487c   LIBC:crt0.obj
 0003:00005880       __wenvptr                  00414880   LIBC:crt0.obj
 0003:00005884       ___error_mode              00414884   LIBC:crt0.obj
 0003:00005888       __stdbuf                   00414888   LIBC:_sftbuf.obj
 0003:00005890       _errno                     00414890   LIBC:crt0dat.obj
 0003:00005894       __doserrno                 00414894   LIBC:crt0dat.obj
 0003:00005898       __umaskval                 00414898   LIBC:crt0dat.obj
 0003:0000589c       __osver                    0041489c   LIBC:crt0dat.obj
 0003:000058a0       __winver                   004148a0   LIBC:crt0dat.obj
 0003:000058a4       __winmajor                 004148a4   LIBC:crt0dat.obj
 0003:000058a8       __winminor                 004148a8   LIBC:crt0dat.obj
 0003:000058ac       ___argc                    004148ac   LIBC:crt0dat.obj
 0003:000058b0       ___argv                    004148b0   LIBC:crt0dat.obj
 0003:000058b4       ___wargv                   004148b4   LIBC:crt0dat.obj
 0003:000058b8       __environ                  004148b8   LIBC:crt0dat.obj
 0003:000058bc       ___initenv                 004148bc   LIBC:crt0dat.obj
 0003:000058c0       __wenviron                 004148c0   LIBC:crt0dat.obj
 0003:000058c4       ___winitenv                004148c4   LIBC:crt0dat.obj
 0003:000058c8       __pgmptr                   004148c8   LIBC:crt0dat.obj
 0003:000058cc       __wpgmptr                  004148cc   LIBC:crt0dat.obj
 0003:000058d0       __exitflag                 004148d0   LIBC:crt0dat.obj
 0003:000058d4       __C_Termination_Done       004148d4   LIBC:crt0dat.obj
 0003:000058d8       __C_Exit_Done              004148d8   LIBC:crt0dat.obj
 0003:000058f0       ___lc_handle               004148f0   LIBC:nlsdata2.obj
 0003:00005908       ___lc_codepage             00414908   LIBC:nlsdata2.obj
 0003:0000590c       __pxcptinfoptrs            0041490c   LIBC:winxfltr.obj
 0003:00005a20       __mbctype                  00414a20   LIBC:mbctype.obj
 0003:00005b24       ___mbcodepage              00414b24   LIBC:mbctype.obj
 0003:00005b28       ___mblcid                  00414b28   LIBC:mbctype.obj
 0003:00005b30       ___mbulinfo                00414b30   LIBC:mbctype.obj
 0003:00005b40       __adbgmsg                  00414b40   LIBC:crt0msg.obj
 0003:00005b44       ?_pnhHeap@@3P6AHI@ZA       00414b44   LIBC:handler.obj
 0003:00005b48       __newmode                  00414b48   LIBC:_newmode.obj
 0003:00005c90       _Ksd_t                     00414c90   <common>
 0003:00005c9c       _pKsd_t                    00414c9c   <common>
 0003:00005ca0       __crtheap                  00414ca0   <common>
 0003:00005ca4       ___onexitend               00414ca4   <common>
 0003:00005ca8       ___onexitbegin             00414ca8   <common>
 0003:00005cc0       ___pioinfo                 00414cc0   <common>
 0003:00005dc0       __nhandle                  00414dc0   <common>
 0003:00005dc4       __acmdln                   00414dc4   <common>
 0003:00005dc8       ___piob                    00414dc8   <common>
 0003:00005de0       __bufin                    00414de0   <common>
 0003:00006de0       __nstream                  00415de0   <common>
 0004:00000000       __IMPORT_DESCRIPTOR_KERNEL32 00416000   kernel32:KERNEL32.dll
 0004:00000014       __NULL_IMPORT_DESCRIPTOR   00416014   kernel32:KERNEL32.dll
 0004:000000e8       __imp__HeapDestroy@4       004160e8   kernel32:KERNEL32.dll
 0004:000000ec       __imp__GetVersion@0        004160ec   kernel32:KERNEL32.dll
 0004:000000f0       __imp__SetHandleCount@4    004160f0   kernel32:KERNEL32.dll
 0004:000000f4       __imp__GetStdHandle@4      004160f4   kernel32:KERNEL32.dll
 0004:000000f8       __imp__GetFileType@4       004160f8   kernel32:KERNEL32.dll
 0004:000000fc       __imp__GetStartupInfoA@4   004160fc   kernel32:KERNEL32.dll
 0004:00000100       __imp__HeapAlloc@12        00416100   kernel32:KERNEL32.dll
 0004:00000104       __imp__ExitProcess@4       00416104   kernel32:KERNEL32.dll
 0004:00000108       __imp__TerminateProcess@8  00416108   kernel32:KERNEL32.dll
 0004:0000010c       __imp__GetCurrentProcess@0 0041610c   kernel32:KERNEL32.dll
 0004:00000110       __imp__GetLocalTime@4      00416110   kernel32:KERNEL32.dll
 0004:00000114       __imp__GetProcAddress@8    00416114   kernel32:KERNEL32.dll
 0004:00000118       __imp__GetModuleHandleA@4  00416118   kernel32:KERNEL32.dll
 0004:0000011c       __imp__UnhandledExceptionFilter@4 0041611c   kernel32:KERNEL32.dll
 0004:00000120       __imp__GetModuleFileNameA@12 00416120   kernel32:KERNEL32.dll
 0004:00000124       __imp__FreeEnvironmentStringsA@4 00416124   kernel32:KERNEL32.dll
 0004:00000128       __imp__MultiByteToWideChar@24 00416128   kernel32:KERNEL32.dll
 0004:0000012c       __imp__FreeEnvironmentStringsW@4 0041612c   kernel32:KERNEL32.dll
 0004:00000130       __imp__GetEnvironmentStrings@0 00416130   kernel32:KERNEL32.dll
 0004:00000134       __imp__GetEnvironmentStringsW@0 00416134   kernel32:KERNEL32.dll
 0004:00000138       __imp__WideCharToMultiByte@32 00416138   kernel32:KERNEL32.dll
 0004:0000013c       __imp__GetCPInfo@8         0041613c   kernel32:KERNEL32.dll
 0004:00000140       __imp__GetACP@0            00416140   kernel32:KERNEL32.dll
 0004:00000144       __imp__GetOEMCP@0          00416144   kernel32:KERNEL32.dll
 0004:00000148       __imp__GetCommandLineA@0   00416148   kernel32:KERNEL32.dll
 0004:0000014c       __imp__HeapCreate@12       0041614c   kernel32:KERNEL32.dll
 0004:00000150       __imp__VirtualFree@12      00416150   kernel32:KERNEL32.dll
 0004:00000154       __imp__RtlUnwind@16        00416154   kernel32:KERNEL32.dll
 0004:00000158       __imp__WriteFile@20        00416158   kernel32:KERNEL32.dll
 0004:0000015c       __imp__HeapFree@12         0041615c   kernel32:KERNEL32.dll
 0004:00000160       __imp__VirtualAlloc@16     00416160   kernel32:KERNEL32.dll
 0004:00000164       __imp__GetLastError@0      00416164   kernel32:KERNEL32.dll
 0004:00000168       __imp__FlushFileBuffers@4  00416168   kernel32:KERNEL32.dll
 0004:0000016c       __imp__GetTimeZoneInformation@4 0041616c   kernel32:KERNEL32.dll
 0004:00000170       __imp__ReadFile@20         00416170   kernel32:KERNEL32.dll
 0004:00000174       __imp__GetStringTypeA@20   00416174   kernel32:KERNEL32.dll
 0004:00000178       __imp__GetStringTypeW@16   00416178   kernel32:KERNEL32.dll
 0004:0000017c       __imp__LCMapStringA@24     0041617c   kernel32:KERNEL32.dll
 0004:00000180       __imp__LCMapStringW@24     00416180   kernel32:KERNEL32.dll
 0004:00000184       __imp__LoadLibraryA@4      00416184   kernel32:KERNEL32.dll
 0004:00000188       __imp__SetFilePointer@16   00416188   kernel32:KERNEL32.dll
 0004:0000018c       __imp__CloseHandle@4       0041618c   kernel32:KERNEL32.dll
 0004:00000190       __imp__SetStdHandle@8      00416190   kernel32:KERNEL32.dll
 0004:00000194       __imp__CompareStringA@24   00416194   kernel32:KERNEL32.dll
 0004:00000198       __imp__CompareStringW@24   00416198   kernel32:KERNEL32.dll
 0004:0000019c       __imp__SetEnvironmentVariableA@8 0041619c   kernel32:KERNEL32.dll
 0004:000001a0       __imp__HeapReAlloc@16      004161a0   kernel32:KERNEL32.dll
 0004:000001a4       \177KERNEL32_NULL_THUNK_DATA 004161a4   kernel32:KERNEL32.dll

 entry point at        0001:00003f10

 Static symbols

 0001:0000c350       _findenv                   0040d350 f LIBC:setenv.obj
 0001:0000c3d0       _copy_environ              0040d3d0 f LIBC:setenv.obj
 0001:0000be00       _wcsncnt                   0040ce00 f LIBC:aw_cmp.obj
 0001:0000c110       _strncnt                   0040d110 f LIBC:aw_cmp.obj
 0001:0000a9a0       _wcsncnt                   0040b9a0 f LIBC:wcstombs.obj
 0001:00009ad0       _wcsncnt                   0040aad0 f LIBC:aw_map.obj
 0001:00009d30       _strncnt                   0040ad30 f LIBC:aw_map.obj
 0001:000086c0       __abstract_cw              004096c0 f LIBC:ieee87.obj
 0001:00008760       __hw_cw                    00409760 f LIBC:ieee87.obj
 0001:000087f0       __abstract_sw              004097f0 f LIBC:ieee87.obj
 0001:00008450       _cvtdate                   00409450 f LIBC:tzset.obj
 0001:00007cd0       __make_time_t              00408cd0 f LIBC:mktime.obj
 0001:000067b0       __unwind_handler           004077b0 f LIBC:exsup.obj
 0001:00006610       _getSystemCP               00407610 f LIBC:mbctype.obj
 0001:00006660       _CPtoLCID                  00407660 f LIBC:mbctype.obj
 0001:000066c0       _setSBCS                   004076c0 f LIBC:mbctype.obj
 0001:00005eb0       _parse_cmdline             00406eb0 f LIBC:stdargv.obj
 0001:00005cd0       _xcptlookup                00406cd0 f LIBC:winxfltr.obj
 0001:000057b0       __cftoe_g                  004067b0 f LIBC:cvt.obj
 0001:000057e0       __cftof_g                  004067e0 f LIBC:cvt.obj
 0001:00005880       __shift                    00406880 f LIBC:cvt.obj
 0001:00005190       _flsall                    00406190 f LIBC:fflush.obj
 0001:00004ff0       _doexit                    00405ff0 f LIBC:crt0dat.obj
 0001:000050a0       __initterm                 004060a0 f LIBC:crt0dat.obj
 0001:00004af0       _write_char                00405af0 f LIBC:output.obj
 0001:00004b40       _write_multi_char          00405b40 f LIBC:output.obj
 0001:00004b80       _write_string              00405b80 f LIBC:output.obj
 0001:00004bc0       _get_int_arg               00405bc0 f LIBC:output.obj
 0001:00004be0       _get_int64_arg             00405be0 f LIBC:output.obj
 0001:00004c00       _get_short_arg             00405c00 f LIBC:output.obj

FIXUPS: 4d62 44 23 4d 20 fffffe92 19 10 ffffff88 ffffff18 5 a ffffff99
FIXUPS: 4b86 fffffeee 1f 13 6b e fffffefa 15 c ea7 21 1b 2f 1f 28 40 145
FIXUPS: 5b5f 44 fffff4c8 50 5c 34 fffffe1d b f 5 10 19 8 5 5 1d c 13 10
FIXUPS: 503a a fffffea9 a fffffe22 126f 12 20 1d 10 7b 12 fffffea4 1d ffffff5a
FIXUPS: 5ed1 fffffd5c 10 9b 156 fffff452 53 b9 23 6e e 2b 26 8b 88 1aa
FIXUPS: 5755 16 1d 13 88 12 c41 27 53 15 2f 114 26 22 17 2f 3a 30 4d 15
FIXUPS: 67cc 2b 3c 1d 1d 32 fffffac6 ffffff76 ffffff3a 9f fffffe17 b 1d
FIXUPS: 613f 44 3f 1a fffffd9a 182e ffffff86 fffffd03 27 b6 41 83 135 fffffa56
FIXUPS: 7215 5e 2d b8 25 55 fffffa7f 14 10 1c fffffec8 1a 2a 10 44 fffffda8
FIXUPS: 6ad4 76 fffffec9 fffffed3 1b fffffa79 1e 2770 e5 fffffe6b ffffff7b
FIXUPS: 89de c 23 fffff860 cd 60 3b 169 fffffa08 17 ffffff02 d 2b 3f 1f
FIXUPS: 7bbc 33 15 37 fffffd42 18 d8 ae fffffdc8 d 11 2f 25 2416 12 2e
FIXUPS: 9dbd 2e 12 fffff800 21 20 19 29 1a fffff880 40 a8 15 6b 14 41 29
FIXUPS: 9134 38 4c 10f c6 20 fffff90b 10 1b9 19 31 1e 1819 55 13 9 bf 38
FIXUPS: a87f fffffd32 fffffe66 ff fffffe1d fffffb8b 2c fffff9f4 18 6b 12
FIXUPS: 9b14 15 1c 11 20 26 e 11 12 1a 1f 32 68 20 51 191f 14 b fffffb03
FIXUPS: b37e 21 28 fffffcfe ffffff44 19 c d 20 15 fffffed9 46 fffff99c
FIXUPS: a9a3 54 53 9 d 4c d c2 7a 81 d 13 7b d fffff9a9 1fe3 1e 34 d 12
FIXUPS: c728 fffff6dc c5 9f f3 62 fb ef 178 14 fffff67f 16 1b 1b b4 9 e
FIXUPS: bbd2 1d 52 fffffdb7 48 fffffdee 115 fffffc8c 24 18 1c3e 2a 28 4c
FIXUPS: d323 48 92 12 12 fffff83f 1e 83 4e 31 d 2e 9 ef 1e 180 48 4e d
FIXUPS: c9b6 6c 53 163 fffffc77 26 ffffff91 fffffe1b 1c ffff7450 2df 12
FIXUPS: 3d90 d 11 10 1a5 cc 294 9 3c 8d 2fc 23b 127 8cb5 ffffff4e fffffe5f
FIXUPS: d46e 44 2f 13 40 5b 2a fffffb9c 36 22 20 26 2c ffff526e aa 40 b0
FIXUPS: 2643 30 2b 30 22 3f 17 37 d 177 17b 117 96 223 6c 69 5a 72 63 36
FIXUPS: 32cd 105 290 32 2b 1b 25f 11d ffffd5b0 a9 8 12 10 6c 10a 104 57
FIXUPS: 13ba 10 12 13 19 22 27 3a 100 11c cf 54 17f ff 361 33 91 54 2d
FIXUPS: 20ff 132 54 1d0
