 dectalk

 Timestamp is 3a379a9d (Wed Dec 13 10:49:49 2000)

 Preferred load address is 1c000000

 Start         Length     Name                   Class
 0001:00000000 00029fc8H .text                   CODE
 0002:00000000 0000019cH .idata$5                DATA
 0002:000001a0 00000068H .rdata                  DATA
 0002:00000208 00000078H .idata$2                DATA
 0002:00000280 00000014H .idata$3                DATA
 0002:00000294 0000019cH .idata$4                DATA
 0002:00000430 00000636H .idata$6                DATA
 0002:00000a70 0000071eH .edata                  DATA
 0003:00000000 00042830H .data                   DATA
 0003:00042830 00000314H .bss                    DATA

  Address         Publics by Value              Rva+Base     Lib:Object

 0001:00000000       _cm_cmd_match_comm         1c001000 f   cm_cmd.obj
 0001:00000230       _cm_cmd_do_command         1c001230 f   cm_cmd.obj
 0001:000002c0       _cm_cmd_build_param        1c0012c0 f   cm_cmd.obj
 0001:00000870       _cm_cmd_reset_comm         1c001870 f   cm_cmd.obj
 0001:000008f0       _cm_cmd_error_comm         1c0018f0 f   cm_cmd.obj
 0001:00000a70       _cm_cmd_phoneme            1c001a70 f   cm_copt.obj
 0001:00000b40       _cm_cmd_log                1c001b40 f   cm_copt.obj
 0001:00000d10       _OpenLogFile               1c001d10 f   cm_copt.obj
 0001:00000db0       _CloseLogFile              1c001db0 f   cm_copt.obj
 0001:00000e50       _cm_cmd_break              1c001e50 f   cm_copt.obj
 0001:00000ed0       _cm_cmd_say                1c001ed0 f   cm_copt.obj
 0001:00000fa0       _cm_cmd_error              1c001fa0 f   cm_copt.obj
 0001:00001030       _cm_cmd_pause              1c002030 f   cm_copt.obj
 0001:000010b0       _cm_cmd_resume             1c0020b0 f   cm_copt.obj
 0001:000010e0       _cm_cmd_flush              1c0020e0 f   cm_copt.obj
 0001:00001200       _cm_cmd_sync               1c002200 f   cm_copt.obj
 0001:00001280       _cm_cmd_enable             1c002280 f   cm_copt.obj
 0001:00001300       _cm_cmd_punct              1c002300 f   cm_copt.obj
 0001:00001390       _cm_cmd_skip               1c002390 f   cm_copt.obj
 0001:00001440       _cm_cmd_timeout            1c002440 f   cm_copt.obj
 0001:00001470       _cm_cmd_cpu_rate           1c002470 f   cm_copt.obj
 0001:00001480       _cm_cmd_setv               1c002480 f   cm_copt.obj
 0001:000014b0       _cm_cmd_loadv              1c0024b0 f   cm_copt.obj
 0001:00001560       _cm_cmd_code_page          1c002560 f   cm_copt.obj
 0001:00001570       _cm_cmd_vs                 1c002570 f   cm_copt.obj
 0001:00001590       _cm_cmd_volume             1c002590 f   cm_copt.obj
 0001:00001700       _cm_cmd_language           1c002700 f   cm_copt.obj
 0001:00001840       _cm_cmd_remove             1c002840 f   cm_copt.obj
 0001:00001890       _cm_cmd_mode               1c002890 f   cm_copt.obj
 0001:00001a00       _cm_cmd_pronounce          1c002a00 f   cm_copt.obj
 0001:00001aa0       _cm_cmd_rate               1c002aa0 f   cm_copt.obj
 0001:00001ae0       _cm_cmd_name               1c002ae0 f   cm_copt.obj
 0001:00001b60       _cm_cmd_latin              1c002b60 f   cm_copt.obj
 0001:00001ba0       _cm_cmd_comma              1c002ba0 f   cm_copt.obj
 0001:00001be0       _cm_cmd_period             1c002be0 f   cm_copt.obj
 0001:00001c20       _cm_cmd_mark               1c002c20 f   cm_copt.obj
 0001:00001e40       _cm_cmd_define             1c002e40 f   cm_copt.obj
 0001:00001f00       _cm_cmd_plang              1c002f00 f   cm_copt.obj
 0001:00002040       _cm_cmd_stress             1c003040 f   cm_copt.obj
 0001:00002070       _cm_cmd_tone               1c003070 f   cm_copt.obj
 0001:00002110       _cm_cmd_dial               1c003110 f   cm_copt.obj
 0001:000023b0       _cm_cmd_digitized          1c0033b0 f   cm_copt.obj
 0001:000023c0       _cm_cmd_debug              1c0033c0 f   cm_copt.obj
 0001:000023f0       _cm_cmd_gender             1c0033f0 f   cm_copt.obj
 0001:00002460       _cmd_main@4                1c003460 f   cm_main.obj
 0001:00002500       _cm_pars_loop              1c003500 f   cm_pars.obj
 0001:00002850       _cm_pars_proc_char         1c003850 f   cm_pars.obj
 0001:000029e0       _cm_pars_new_state         1c0039e0 f   cm_pars.obj
 0001:00002a80       _cm_pars_getseq            1c003a80 f   cm_pars.obj
 0001:00002ed0       _cm_phon_match             1c003ed0 f   cm_phon.obj
 0001:000033b0       _cm_text_get_word          1c0043b0 f   cm_text.obj
 0001:00003470       _cm_text_getclause         1c004470 f   cm_text.obj
 0001:00004880       _cm_util_initialize        1c005880 f   cm_util.obj
 0001:000049f0       _cm_util_flush_init        1c0059f0 f   cm_util.obj
 0001:00004ac0       _cm_util_init_type         1c005ac0 f   cm_util.obj
 0001:00004ae0       _cm_util_dtpc_tones        1c005ae0 f   cm_util.obj
 0001:00004b60       _cm_util_dtpc_tones_reset  1c005b60 f   cm_util.obj
 0001:00004b70       _cm_util_type_out          1c005b70 f   cm_util.obj
 0001:00004c00       _cm_util_string_match      1c005c00 f   cm_util.obj
 0001:00004c80       _cm_util_write_pipe        1c005c80 f   cm_util.obj
 0001:00004cf0       _cmd_init                  1c005cf0 f   Cmd_init.obj
 0001:00004d50       _FreeCMDThreadMemory       1c005d50 f   Cmd_init.obj
 0001:00004da0       _cm_cmd_play               1c005da0 f   cmd_wav.obj
 0001:00005290       _encryptString             1c006290 f   CRYPT2.OBJ
 0001:00005400       _decryptString             1c006400 f   CRYPT2.OBJ
 0001:000055a0       _sixencode24               1c0065a0 f   CRYPT2.OBJ
 0001:000055e0       _sixdecode24               1c0065e0 f   CRYPT2.OBJ
 0001:00005640       _trand                     1c006640 f   CRYPT2.OBJ
 0001:00005670       _rot24                     1c006670 f   CRYPT2.OBJ
 0001:000056a0       _unrot24                   1c0066a0 f   CRYPT2.OBJ
 0001:000056d0       _rot32                     1c0066d0 f   CRYPT2.OBJ
 0001:000056f0       _WINprintf                 1c0066f0 f   dbgwins.obj
 0001:00005700       _WINstart_thread           1c006700 f   dbgwins.obj
 0001:00005710       _WINprint                  1c006710 f   dbgwins.obj
 0001:00005720       _unload_dictionary         1c006720 f   loaddict.obj
 0001:00005760       _load_dictionary           1c006760 f   loaddict.obj
 0001:000059f0       _ls_dict_blook             1c0069f0 f   ls_dict.obj
 0001:00005c70       _ls_dict_find_word         1c006c70 f   ls_dict.obj
 0001:00005fe0       _ls_dict_dlook             1c006fe0 f   ls_dict.obj
 0001:000062b0       _ls_dict_where_to_look     1c0072b0 f   ls_dict.obj
 0001:00006390       _ls_dict_ufind_word        1c007390 f   ls_dict.obj
 0001:00006400       _ls_dict_user_dict_look    1c007400 f   ls_dict.obj
 0001:000064d0       _ls_dict_where_to_ulook    1c0074d0 f   ls_dict.obj
 0001:00006530       _DictionaryHit             1c007530 f   ls_dict.obj
 0001:00006750       _DumpDictionary            1c007750 f   ls_dict.obj
 0001:000068e0       _UserDictionaryHit         1c0078e0 f   ls_dict.obj
 0001:00006b10       _DumpUserDictionary        1c007b10 f   ls_dict.obj
 0001:00006c30       _UserDictionaryHead        1c007c30 f   ls_dict.obj
 0001:00006c40       _GetUserEntrySize          1c007c40 f   ls_dict.obj
 0001:00006c80       _AddUserEntry              1c007c80 f   ls_dict.obj
 0001:00007050       _DeleteUserEntry           1c008050 f   ls_dict.obj
 0001:000071a0       _ChangeUserPhoneme         1c0081a0 f   ls_dict.obj
 0001:00007230       _GetNumUserEntries         1c008230 f   ls_dict.obj
 0001:00007240       _GetUserEntry              1c008240 f   ls_dict.obj
 0001:00007330       _SaveUserDictionary        1c008330 f   ls_dict.obj
 0001:00007410       _ls_homo_homo              1c008410 f   ls_homo.obj
 0001:00007690       _ls_math_do_math           1c008690 f   ls_math.obj
 0001:000076e0       _ls_math_flush_ascky       1c0086e0 f   ls_math.obj
 0001:00007740       _ls_proc_do_sign           1c008740 f   ls_proc.obj
 0001:000077f0       _ls_proc_do_part_number    1c0087f0 f   ls_proc.obj
 0001:00007940       _ls_proc_is_a_part         1c008940 f   ls_proc.obj
 0001:00007970       _ls_proc_do_2_digits       1c008970 f   ls_proc.obj
 0001:00007a00       _ls_proc_do_3_digits       1c008a00 f   ls_proc.obj
 0001:00007a80       _ls_proc_do_4_digits       1c008a80 f   ls_proc.obj
 0001:00007b40       _ls_proc_do_digit_group    1c008b40 f   ls_proc.obj
 0001:00007c70       _ls_proc_do_number         1c008c70 f   ls_proc.obj
 0001:00008330       _ls_proc_non_zero          1c009330 f   ls_proc.obj
 0001:00008360       _ls_proc_is_date           1c009360 f   ls_proc.obj
 0001:000084f0       _ls_proc_do_date           1c0094f0 f   ls_proc.obj
 0001:000086a0       _ls_proc_is_frac           1c0096a0 f   ls_proc.obj
 0001:00008760       _ls_proc_do_frac           1c009760 f   ls_proc.obj
 0001:00008840       _ls_proc_is_time           1c009840 f   ls_proc.obj
 0001:00008950       _ls_proc_is_am_pm          1c009950 f   ls_proc.obj
 0001:000089a0       _ls_proc_do_time           1c0099a0 f   ls_proc.obj
 0001:00008a90       _ls_spel_say_it            1c009a90 f   ls_spel.obj
 0001:00008b40       _ls_spel_spell             1c009b40 f   ls_spel.obj
 0001:00008c20       _ls_spel_spell_speed       1c009c20 f   ls_spel.obj
 0001:00008c90       _ls_suff_suffix_find       1c009c90 f   ls_suff.obj
 0001:00008f70       _ls_suff_append_pron       1c009f70 f   ls_suff.obj
 0001:00008fe0       _ls_suff_print_fc          1c009fe0 f   ls_suff.obj
 0001:000091e0       _ls_adju_cluster           1c00a1e0 f   lsa_adju.obj
 0001:00009330       _ls_adju_allo2             1c00a330 f   lsa_adju.obj
 0001:00009720       _ls_adju_sylables          1c00a720 f   lsa_adju.obj
 0001:00009910       _ls_adju_is_cons           1c00a910 f   lsa_adju.obj
 0001:00009930       _ls_adju_is_voc            1c00a930 f   lsa_adju.obj
 0001:00009950       _ls_adju_stress            1c00a950 f   lsa_adju.obj
 0001:00009da0       _ls_adju_unstressed        1c00ada0 f   lsa_adju.obj
 0001:00009de0       _ls_adju_suffixscan        1c00ade0 f   lsa_adju.obj
 0001:00009e90       _ls_adju_prefixscan        1c00ae90 f   lsa_adju.obj
 0001:0000a060       _ls_adju_bestdefault       1c00b060 f   lsa_adju.obj
 0001:0000a100       _ls_adju_best2syl          1c00b100 f   lsa_adju.obj
 0001:0000a190       _ls_adju_final_fixes       1c00b190 f   lsa_adju.obj
 0001:0000a2c0       _ls_adju_allo1             1c00b2c0 f   lsa_adju.obj
 0001:0000a390       _ls_adju_delgemphone       1c00b390 f   lsa_adju.obj
 0001:0000a3d0       _ls_adju_is_obs            1c00b3d0 f   lsa_adju.obj
 0001:0000a3f0       _ls_adju_ins_phone         1c00b3f0 f   lsa_adju.obj
 0001:0000a450       _ls_adju_del_phone         1c00b450 f   lsa_adju.obj
 0001:0000a470       _ls_rule_lts               1c00b470 f   lsa_rule.obj
 0001:0000a7c0       _ls_rule_lts_out           1c00b7c0 f   lsa_rule.obj
 0001:0000a880       _ls_rule_delete_geminate_pairs 1c00b880 f   lsa_rule.obj
 0001:0000a910       _ls_rule_add_graph         1c00b910 f   lsa_rule.obj
 0001:0000a9f0       _ls_rule_rule_match        1c00b9f0 f   lsa_rule.obj
 0001:0000ab40       _ls_rule_env_match         1c00bb40 f   lsa_rule.obj
 0001:0000ad70       _ls_rule_add_phone         1c00bd70 f   lsa_rule.obj
 0001:0000adc0       _ls_rule_do_lts            1c00bdc0 f   lsa_rule.obj
 0001:0000ae70       _ls_rule_show_phone        1c00be70 f   lsa_rule.obj
 0001:0000ae80       _ls_rule_phone_alloc       1c00be80 f   lsa_rule.obj
 0001:0000aeb0       _ls_rule_phone_free        1c00beb0 f   lsa_rule.obj
 0001:0000aed0       _ls_task_main              1c00bed0 f   lsa_task.obj
 0001:0000b2e0       _ls_task_parse_number      1c00c2e0 f   lsa_task.obj
 0001:0000b490       _ls_task_wlookup           1c00c490 f   lsa_task.obj
 0001:0000b560       _ls_task_lookahead         1c00c560 f   lsa_task.obj
 0001:0000b5a0       _ls_task_do_right_punct    1c00c5a0 f   lsa_task.obj
 0001:0000b870       _ls_task_readword          1c00c870 f   lsa_task.obj
 0001:0000ba50       _ls_task_spell_word        1c00ca50 f   lsa_task.obj
 0001:0000baa0       _ls_task_read_next_word    1c00caa0 f   lsa_task.obj
 0001:0000bb40       _ls_task_set_what_state    1c00cb40 f   lsa_task.obj
 0001:0000bc10       _ls_task_find_end_of_word  1c00cc10 f   lsa_task.obj
 0001:0000bc40       _ls_task_spell_mode        1c00cc40 f   lsa_task.obj
 0001:0000bc90       _ls_task_minidic_search    1c00cc90 f   lsa_task.obj
 0001:0000bce0       _ls_task_math_mode         1c00cce0 f   lsa_task.obj
 0001:0000bd20       _ls_task_dictionary_search 1c00cd20 f   lsa_task.obj
 0001:0000be30       _ls_task_strip_left_punctuation 1c00ce30 f   lsa_task.obj
 0001:0000bea0       _ls_task_strip_right_punctuation 1c00cea0 f   lsa_task.obj
 0001:0000bf80       _ls_task_spell_all_punct   1c00cf80 f   lsa_task.obj
 0001:0000bfe0       _ls_task_dictionary_after_punct 1c00cfe0 f   lsa_task.obj
 0001:0000c0b0       _ls_task_spell_vs_speak    1c00d0b0 f   lsa_task.obj
 0001:0000c130       _ls_task_single_letter_spell_rules 1c00d130 f   lsa_task.obj
 0001:0000c340       _ls_task_remove_case       1c00d340 f   lsa_task.obj
 0001:0000c370       _ls_task_Dr_St_process     1c00d370 f   lsa_task.obj
 0001:0000c4f0       _ls_task_set_sign_flag     1c00d4f0 f   lsa_task.obj
 0001:0000c590       _ls_task_currency_processing 1c00d590 f   lsa_task.obj
 0001:0000c910       _ls_task_date_processing   1c00d910 f   lsa_task.obj
 0001:0000ca20       _ls_task_frac_processing   1c00da20 f   lsa_task.obj
 0001:0000ca70       _ls_task_plain_number_processing 1c00da70 f   lsa_task.obj
 0001:0000cdd0       _ls_task_part_number       1c00ddd0 f   lsa_task.obj
 0001:0000ce70       _ls_task_process_word      1c00de70 f   lsa_task.obj
 0001:0000d030       _ls_task_lookup_first_verbs 1c00e030 f   lsa_task.obj
 0001:0000d110       _ls_task_prelookup         1c00e110 f   lsa_task.obj
 0001:0000d190       _lsa_util_pcmp             1c00e190 f   lsa_util.obj
 0001:0000d1d0       _lsa_util_stress_fr        1c00e1d0 f   lsa_util.obj
 0001:0000d220       _lsa_util_stress_gr        1c00e220 f   lsa_util.obj
 0001:0000d350       _lsa_util_stress_it        1c00e350 f   lsa_util.obj
 0001:0000d410       _lsa_util_stress_ja        1c00e410 f   lsa_util.obj
 0001:0000d450       _lsa_util_stress_sl        1c00e450 f   lsa_util.obj
 0001:0000d6d0       _lsa_util_stress_sp        1c00e6d0 f   lsa_util.obj
 0001:0000d870       _lsa_util_init_lang        1c00e870 f   lsa_util.obj
 0001:0000d920       _lsa_util_id_name          1c00e920 f   lsa_util.obj
 0001:0000db60       _lsa_util_print_ntype      1c00eb60 f   lsa_util.obj
 0001:0000db80       _lsa_util_force_english    1c00eb80 f   lsa_util.obj
 0001:0000dcd0       _ls_util_dump_cword        1c00ecd0 f   lsa_util.obj
 0001:0000dd40       _ls_util_dump_llp_rlp      1c00ed40 f   lsa_util.obj
 0001:0000ddb0       _ls_util_dump_lsp_endp     1c00edb0 f   lsa_util.obj
 0001:0000de30       _ls_util_is_dot            1c00ee30 f   lsa_util.obj
 0001:0000de50       _ls_util_is_name           1c00ee50 f   lsa_util.obj
 0001:0000dee0       _ls_util_is_ordinal        1c00eee0 f   lsa_util.obj
 0001:0000df80       _ls_util_is_year           1c00ef80 f   lsa_util.obj
 0001:0000dfe0       _ls_util_copyword          1c00efe0 f   lsa_util.obj
 0001:0000e020       _ls_util_send_phone_list   1c00f020 f   lsa_util.obj
 0001:0000e050       _ls_util_send_phone        1c00f050 f   lsa_util.obj
 0001:0000e140       _ls_util_is_might          1c00f140 f   lsa_util.obj
 0001:0000e190       _ls_util_is_index          1c00f190 f   lsa_util.obj
 0001:0000e1d0       _ls_util_is_white          1c00f1d0 f   lsa_util.obj
 0001:0000e210       _ls_util_read_item         1c00f210 f   lsa_util.obj
 0001:0000e260       _ls_util_next_item         1c00f260 f   lsa_util.obj
 0001:0000e560       _ls_util_write_item        1c00f560 f   lsa_util.obj
 0001:0000e5a0       _ls_util_lookup            1c00f5a0 f   lsa_util.obj
 0001:0000e6e0       _ls_util_pluralize         1c00f6e0 f   lsa_util.obj
 0001:0000e750       _ls_util_is_vowel          1c00f750 f   lsa_util.obj
 0001:0000e780       _ls_util_lts_init          1c00f780 f   lsa_util.obj
 0001:0000e7b0       _f_fprintf                 1c00f7b0 f   lsa_util.obj
 0001:0000e7e0       _ls_util_write_pipe        1c00f7e0 f   lsa_util.obj
 0001:0000ef80       _ls_util_is_aword          1c00ff80 f   lsa_util.obj
 0001:0000efc0       _lts_main@4                1c00ffc0 f   lsw_main.obj
 0001:0000f150       _IsFileAccessible          1c010150 f   lsw_main.obj
 0001:0000f170       _FindFileOnPath            1c010170 f   lsw_main.obj
 0001:0000f1c0       _FindFileInCurrentDirectory 1c0101c0 f   lsw_main.obj
 0001:0000f2a0       _GetDictionaryNames        1c0102a0 f   lsw_main.obj
 0001:0000f4e0       _LTSLibMain                1c0104e0 f   lsw_main.obj
 0001:0000f4f0       _mallocLock                1c0104f0 f   mmalloc.obj
 0001:0000f510       _reallocLock               1c010510 f   mmalloc.obj
 0001:0000f540       _freeLock                  1c010540 f   mmalloc.obj
 0001:0000f570       _OP_CreateThread           1c010570 f   opthread.obj
 0001:0000f5a0       _OP_GetThreadPriority      1c0105a0 f   opthread.obj
 0001:0000f5b0       _OP_SetThreadPriority      1c0105b0 f   opthread.obj
 0001:0000f5d0       _OP_ExitThread             1c0105d0 f   opthread.obj
 0001:0000f5e0       _OP_WaitForThreadTermination 1c0105e0 f   opthread.obj
 0001:0000f620       _OP_CreateMutex            1c010620 f   opthread.obj
 0001:0000f640       _OP_DestroyMutex           1c010640 f   opthread.obj
 0001:0000f660       _OP_LockMutex              1c010660 f   opthread.obj
 0001:0000f670       _OP_UnlockMutex            1c010670 f   opthread.obj
 0001:0000f680       _OP_CreateEvent            1c010680 f   opthread.obj
 0001:0000f6a0       _OP_DestroyEvent           1c0106a0 f   opthread.obj
 0001:0000f6b0       _OP_SetEvent               1c0106b0 f   opthread.obj
 0001:0000f6c0       _OP_ResetEvent             1c0106c0 f   opthread.obj
 0001:0000f6d0       _OP_WaitForEvent           1c0106d0 f   opthread.obj
 0001:0000f6f0       _OP_Sleep                  1c0106f0 f   opthread.obj
 0001:0000f700       _ThreadLock                1c010700 f   opthread.obj
 0001:0000f780       _ThreadUnlock              1c010780 f   opthread.obj
 0001:0000f7b0       _par_dict_lookup           1c0107b0 f   Par_dict.obj
 0001:0000f990       _par_dict_find_word        1c010990 f   Par_dict.obj
 0001:0000fa50       _par_dict_ufind_word       1c010a50 f   Par_dict.obj
 0001:0000fab0       _par_dict_dlook            1c010ab0 f   Par_dict.obj
 0001:0000fb60       _par_dict_udlook           1c010b60 f   Par_dict.obj
 0001:0000fc00       _par_dict_where_to_look    1c010c00 f   Par_dict.obj
 0001:0000fc70       _par_dict_where_to_ulook   1c010c70 f   Par_dict.obj
 0001:0000fcd0       _ERROR_func1               1c010cd0 f   Par_pars.obj
 0001:0000fd20       _ERROR_func2               1c010d20 f   Par_pars.obj
 0001:0000fd30       _par_process_input         1c010d30 f   Par_pars.obj
 0001:00010910       _par_match_rule            1c011910 f   Par_pars.obj
 0001:00010e80       _par_delete_string         1c011e80 f   Par_pars.obj
 0001:00010f20       _par_replace_string        1c011f20 f   Par_pars.obj
 0001:000110a0       _par_compound_break        1c0120a0 f   Par_pars.obj
 0001:00011160       _par_break_down_word       1c012160 f   Par_pars.obj
 0001:00011330       _par_find_word_in_dict     1c012330 f   Par_pars.obj
 0001:000113f0       _par_insert_string         1c0123f0 f   Par_pars.obj
 0001:00011640       _par_insert_string_after   1c012640 f   Par_pars.obj
 0001:000116f0       _par_insert_string_before  1c0126f0 f   Par_pars.obj
 0001:00011800       _par_save_string           1c012800 f   Par_pars.obj
 0001:00011860       _par_dom_dict_search       1c012860 f   Par_pars.obj
 0001:000119f0       _par_look_ahead_dictionary 1c0129f0 f   Par_pars.obj
 0001:00011a60       _par_search_for_word       1c012a60 f   Par_pars.obj
 0001:00011c60       _par_check_word_string     1c012c60 f   Par_pars.obj
 0001:00011cf0       _par_status_string         1c012cf0 f   Par_pars.obj
 0001:00011d50       _par_build_string_from_rule 1c012d50 f   Par_pars.obj
 0001:00011f70       _par_match_string          1c012f70 f   Par_pars.obj
 0001:00012150       _par_copy_string_data      1c013150 f   Par_pars.obj
 0001:000121c0       _par_convert_number        1c0131c0 f   Par_pars.obj
 0001:000121f0       _par_convert_number_new2   1c0131f0 f   Par_pars.obj
 0001:00012220       _par_get_int_length        1c013220 f   Par_pars.obj
 0001:00012260       _par_look_ahead            1c013260 f   Par_pars.obj
 0001:00012480       _par_copy_word_to_output   1c013480 f   Par_pars.obj
 0001:00012560       _par_skip_white_space      1c013560 f   Par_pars.obj
 0001:00012690       _par_print_rule_error      1c013690 f   Par_pars.obj
 0001:000126f0       _par_match_standard        1c0136f0 f   Par_pars.obj
 0001:00012ad0       _par_match_digits          1c013ad0 f   Par_pars.obj
 0001:00012de0       _par_match_sets_with_ranges 1c013de0 f   Par_pars.obj
 0001:000130a0       _par_match_set             1c0140a0 f   Par_pars.obj
 0001:00013280       _phalloph                  1c014280 f   ph_aloph.obj
 0001:00013c10       _prphonol                  1c014c10 f   ph_aloph.obj
 0001:00013c20       _phclause                  1c014c20 f   ph_claus.obj
 0001:00013e30       _init_phclause             1c014e30 f   ph_claus.obj
 0001:000141c0       _phdraw                    1c0151c0 f   ph_draw.obj
 0001:00014690       _pht0draw                  1c015690 f   ph_drwt0.obj
 0001:00016630       _phinton                   1c017630 f   ph_inton.obj
 0001:00017910       _ph_main@4                 1c018910 f   ph_main.obj
 0001:00017b40       _FreePHInstanceData        1c018b40 f   ph_main.obj
 0001:00017b90       _phsettar                  1c018b90 f   ph_setar.obj
 0001:0001a090       _phcluster                 1c01b090 f   ph_sort.obj
 0001:0001a210       _phsort                    1c01b210 f   ph_sort.obj
 0001:0001b500       _saysyllable               1c01c500 f   ph_syl.obj
 0001:0001b6b0       _syl_find_vowel            1c01c6b0 f   ph_syl.obj
 0001:0001b810       _syl_find_cons             1c01c810 f   ph_syl.obj
 0001:0001b8a0       _logsyllable               1c01c8a0 f   ph_syl.obj
 0001:0001be90       _kltask                    1c01ce90 f   ph_task.obj
 0001:0001c960       _deadstop                  1c01d960 f   ph_task.obj
 0001:0001cbc0       _mstofr                    1c01dbc0 f   ph_task.obj
 0001:0001cbd0       _GetCurrentPitch           1c01dbd0 f   ph_task.obj
 0001:0001cc00       _GetPhVdefParams           1c01dc00 f   ph_task.obj
 0001:0001cce0       _GetSpeakerParams          1c01dce0 f   ph_task.obj
 0001:0001d6c0       _SetSpeakerParams          1c01e6c0 f   ph_task.obj
 0001:0001d9b0       _phtiming                  1c01e9b0 f   ph_timng.obj
 0001:0001e7d0       _prdurs                    1c01f7d0 f   ph_timng.obj
 0001:0001e7e0       _prphdurs                  1c01f7e0 f   ph_timng.obj
 0001:0001e7f0       _setparam                  1c01f7f0 f   ph_vset.obj
 0001:0001e8a0       _usevoice                  1c01f8a0 f   ph_vset.obj
 0001:0001e920       _saveval                   1c01f920 f   ph_vset.obj
 0001:0001e940       _setspdef                  1c01f940 f   ph_vset.obj
 0001:0001ec40       _phinit                    1c01fc40 f   phinit.obj
 0001:0001eda0       _logclaus                  1c01fda0 f   phlog.obj
 0001:0001ef20       _logitem                   1c01ff20 f   phlog.obj
 0001:0001f1c0       _dologphoneme              1c0201c0 f   phlog.obj
 0001:0001f500       _create_pipe               1c020500 f   PIPE.OBJ
 0001:0001f680       _write_pipe                1c020680 f   PIPE.OBJ
 0001:0001fbb0       _read_pipe                 1c020bb0 f   PIPE.OBJ
 0001:000201b0       _pause_pipe                1c0211b0 f   PIPE.OBJ
 0001:000201e0       _resume_pipe               1c0211e0 f   PIPE.OBJ
 0001:00020210       _exit_pipe                 1c021210 f   PIPE.OBJ
 0001:00020240       _reset_pipe                1c021240 f   PIPE.OBJ
 0001:00020280       _destroy_pipe              1c021280 f   PIPE.OBJ
 0001:000202c0       _pipe_count                1c0212c0 f   PIPE.OBJ
 0001:000202f0       _LockPipe                  1c0212f0 f   PIPE.OBJ
 0001:00020300       _UnlockPipe                1c021300 f   PIPE.OBJ
 0001:00020310       _SWFlushPipe               1c021310 f   PIPE.OBJ
 0001:00020360       _PA_CreatePlayHandle       1c021360 f   playaud.obj
 0001:000203b0       _PA_CreatePlayHandleEx     1c0213b0 f   playaud.obj
 0001:00020990       _PA_DestroyPlayHandle      1c021990 f   playaud.obj
 0001:000209d0       _PA_DestroyPlayHandleEx    1c0219d0 f   playaud.obj
 0001:00020c00       _PA_Queue                  1c021c00 f   playaud.obj
 0001:00020dc0       _PA_Reset                  1c021dc0 f   playaud.obj
 0001:00020e70       _PA_Pause                  1c021e70 f   playaud.obj
 0001:00020e90       _PA_Resume                 1c021e90 f   playaud.obj
 0001:00020ee0       _PA_GetFormat              1c021ee0 f   playaud.obj
 0001:00020f00       _PA_SetFormat              1c021f00 f   playaud.obj
 0001:00020f70       _PA_GetVolume              1c021f70 f   playaud.obj
 0001:00020f90       _PA_SetVolume              1c021f90 f   playaud.obj
 0001:00020fb0       _PA_SynchronizationMark    1c021fb0 f   playaud.obj
 0001:00020fd0       _PA_GetPosition            1c021fd0 f   playaud.obj
 0001:00021050       _PA_Status                 1c022050 f   playaud.obj
 0001:000211e0       _PA_WaitForPlayToComplete  1c0221e0 f   playaud.obj
 0001:00021410       _TimerThreadMain           1c022410 f   playaud.obj
 0001:00021840       _PlayAudioThreadMain       1c022840 f   playaud.obj
 0001:00022ba0       _WaveOutCallbackRoutine@20 1c023ba0 f   playaud.obj
 0001:00022bf0       _PA_DoSync                 1c023bf0 f   playaud.obj
 0001:00022c30       _PA_GetBytesPerSecond      1c023c30 f   playaud.obj
 0001:00022c40       _PlayTones                 1c023c40 f   PLAYTONE.OBJ
 0001:00022fc0       _save_index                1c023fc0 f   SERVICES.OBJ
 0001:00023060       _check_index               1c024060 f   SERVICES.OBJ
 0001:00023160       _adjust_index              1c024160 f   SERVICES.OBJ
 0001:000231c0       _adjust_allo               1c0241c0 f   SERVICES.OBJ
 0001:00023210       _set_index_allo            1c024210 f   SERVICES.OBJ
 0001:00023260       _free_index                1c024260 f   SERVICES.OBJ
 0001:000232b0       _send_index                1c0242b0 f   SERVICES.OBJ
 0001:000232c0       _start_flush               1c0242c0 f   SERVICES.OBJ
 0001:000232d0       _reset_spc                 1c0242d0 f   SERVICES.OBJ
 0001:000232e0       _default_lang              1c0242e0 f   SERVICES.OBJ
 0001:000233c0       _flush_done                1c0243c0 f   SERVICES.OBJ
 0001:000233e0       _kernel_disable            1c0243e0 f   SERVICES.OBJ
 0001:000233f0       _kernel_enable             1c0243f0 f   SERVICES.OBJ
 0001:00023400       _wait_semaphore            1c024400 f   SERVICES.OBJ
 0001:00023410       _signal_semaphore          1c024410 f   SERVICES.OBJ
 0001:00023420       _set_gpio                  1c024420 f   SERVICES.OBJ
 0001:00023430       _clr_gpio                  1c024430 f   SERVICES.OBJ
 0001:00023440       _sleep                     1c024440 f   SERVICES.OBJ
 0001:00023450       _putseq                    1c024450 f   SERVICES.OBJ
 0001:00023460       _EncodeDectalkVolume       1c024460 f   SERVICES.OBJ
 0001:00023480       _DecodeDectalkVolume       1c024480 f   SERVICES.OBJ
 0001:000234e0       _StereoVolumeControl       1c0244e0 f   SERVICES.OBJ
 0001:000235c0       _SetStereoVolume           1c0245c0 f   SERVICES.OBJ
 0001:00023610       _spcget                    1c024610 f   SPC.OBJ
 0001:000236b0       _spcwrite                  1c0246b0 f   SPC.OBJ
 0001:00023700       _spcfree                   1c024700 f   SPC.OBJ
 0001:00023710       _sync_main@4               1c024710 f   SYNC.OBJ
 0001:00023af0       _all_digits                1c024af0 f   ttsapi.obj
 0001:00023b20       _LibMain@12                1c024b20 f   ttsapi.obj
 0001:00023b30       _AddLicenseRef             1c024b30 f   ttsapi.obj
 0001:00023d80       _ReleaseLicenseRef         1c024d80 f   ttsapi.obj
 0001:00023dc0       _TextToSpeechStartupEx     1c024dc0 f   ttsapi.obj
 0001:00024450       _TextToSpeechStartup       1c025450 f   ttsapi.obj
 0001:00024480       _DefaultTTSCallbackRoutine 1c025480 f   ttsapi.obj
 0001:00024580       _TextToSpeechShutdown      1c025580 f   ttsapi.obj
 0001:00024a80       _TextToSpeechSpeak         1c025a80 f   ttsapi.obj
 0001:00024ac0       _TextToSpeechSpeakEx       1c025ac0 f   ttsapi.obj
 0001:00024bf0       _TextToSpeechPause         1c025bf0 f   ttsapi.obj
 0001:00024c20       _TextToSpeechResume        1c025c20 f   ttsapi.obj
 0001:00024c50       _TextToSpeechOpenWaveOutFile 1c025c50 f   ttsapi.obj
 0001:00024e00       _TextToSpeechCloseWaveOutFile 1c025e00 f   ttsapi.obj
 0001:00024f30       _TextToSpeechGetStatus     1c025f30 f   ttsapi.obj
 0001:00025090       _TextToSpeechReset         1c026090 f   ttsapi.obj
 0001:000256d0       _TextToSpeechSync          1c0266d0 f   ttsapi.obj
 0001:000257d0       _TextToSpeechGetRate       1c0267d0 f   ttsapi.obj
 0001:00025810       _TextToSpeechSetRate       1c026810 f   ttsapi.obj
 0001:00025850       _TextToSpeechGetSpeaker    1c026850 f   ttsapi.obj
 0001:00025890       _TextToSpeechSetSpeaker    1c026890 f   ttsapi.obj
 0001:000258d0       _TextToSpeechGetLanguage   1c0268d0 f   ttsapi.obj
 0001:00025900       _TextToSpeechSetLanguage   1c026900 f   ttsapi.obj
 0001:00025930       _TextToSpeechGetCaps       1c026930 f   ttsapi.obj
 0001:00025990       _TextToSpeechLoadUserDictionary 1c026990 f   ttsapi.obj
 0001:000259f0       _TextToSpeechUnloadUserDictionary 1c0269f0 f   ttsapi.obj
 0001:00025a30       _TextToSpeechOpenInMemory  1c026a30 f   ttsapi.obj
 0001:00025b60       _TextToSpeechCloseInMemory 1c026b60 f   ttsapi.obj
 0001:00025c40       _TextToSpeechAddBuffer     1c026c40 f   ttsapi.obj
 0001:00025ce0       _TextToSpeechReturnBuffer  1c026ce0 f   ttsapi.obj
 0001:00025d40       _TextToSpeechOpenLogFile   1c026d40 f   ttsapi.obj
 0001:00025e50       _TextToSpeechCloseLogFile  1c026e50 f   ttsapi.obj
 0001:00025f10       _QueueToMemory             1c026f10 f   ttsapi.obj
 0001:000261c0       _SendBuffer                1c0271c0 f   ttsapi.obj
 0001:000262d0       _ReturnRemainingBuffers    1c0272d0 f   ttsapi.obj
 0001:00026410       _PutIndexMarkInBuffer      1c027410 f   ttsapi.obj
 0001:000264d0       _PutPhonemeInBuffer        1c0274d0 f   ttsapi.obj
 0001:000268b0       _TextToSpeechErrorHandler  1c0278b0 f   ttsapi.obj
 0001:000268e0       _WriteAudioToFile          1c0278e0 f   ttsapi.obj
 0001:00026a00       _WaitForLtsFlush           1c027a00 f   ttsapi.obj
 0001:00026ef0       _PlayAudioCallbackRoutine  1c027ef0 f   ttsapi.obj
 0001:00026fa0       _Report_TTS_Status         1c027fa0 f   ttsapi.obj
 0001:00027010       _DrainPipes                1c028010 f   ttsapi.obj
 0001:00027050       _TextToSpeechVersion       1c028050 f   ttsapi.obj
 0001:00027090       _TextToSpeechControlPanel  1c028090 f   ttsapi.obj
 0001:000270a0       _TextToSpeechGetLastError  1c0280a0 f   ttsapi.obj
 0001:000270b0       _TextToSpeechTyping        1c0280b0 f   ttsapi.obj
 0001:000270c0       _TextToSpeechReserved1     1c0280c0 f   ttsapi.obj
 0001:00027250       _TextToSpeechReserved2     1c028250 f   ttsapi.obj
 0001:00027260       _TextToSpeechVersionEx     1c028260 f   ttsapi.obj
 0001:000272f0       _TextToSpeechStartLang     1c0282f0 f   ttsapi.obj
 0001:00027300       _TextToSpeechCloseLang     1c028300 f   ttsapi.obj
 0001:00027310       _TextToSpeechSelectLang    1c028310 f   ttsapi.obj
 0001:00027320       _TextToSpeechGetFeatures   1c028320 f   ttsapi.obj
 0001:00027330       _TextToSpeechEnumLangs     1c028330 f   ttsapi.obj
 0001:000273f0       _TextToSpeechReserved3     1c0283f0 f   ttsapi.obj
 0001:00027550       _TextToSpeechGetPhVdefParams 1c028550 f   ttsapi.obj
 0001:00027570       _TextToSpeechGetSpeakerParams 1c028570 f   ttsapi.obj
 0001:000275a0       _TextToSpeechSetSpeakerParams 1c0285a0 f   ttsapi.obj
 0001:000275c0       _TextToSpeechDictionaryHit 1c0285c0 f   ttsapi.obj
 0001:000275f0       _TextToSpeechDumpDictionary 1c0285f0 f   ttsapi.obj
 0001:00027610       _TextToSpeechUserDictionaryHit 1c028610 f   ttsapi.obj
 0001:00027640       _TextToSpeechDumpUserDictionary 1c028640 f   ttsapi.obj
 0001:00027660       _TextToSpeechAddUserEntry  1c028660 f   ttsapi.obj
 0001:00027680       _TextToSpeechDeleteUserEntry 1c028680 f   ttsapi.obj
 0001:000276a0       _TextToSpeechChangeUserPhoneme 1c0286a0 f   ttsapi.obj
 0001:000276d0       _TextToSpeechSaveUserDictionary 1c0286d0 f   ttsapi.obj
 0001:000276f0       _TextToSpeechConvertToPhonemes 1c0286f0 f   ttsapi.obj
 0001:000277c0       _TextToSpeechTuning        1c0287c0 f   ttsapi.obj
 0001:000278c0       _PumpModeMessage           1c0288c0 f   ttsapi.obj
 0001:000278d0       _usa_init                  1c0288d0 f   USA_INIT.OBJ
 0001:000279c0       _d2pole_cf45               1c0289c0 f   vtm.obj
 0001:00027aa0       _d2pole_cf123              1c028aa0 f   vtm.obj
 0001:00027b80       _d2pole_pf                 1c028b80 f   vtm.obj
 0001:00027c60       _Notch_fc                  1c028c60 f   vtm.obj
 0001:00027cd0       _speech_waveform_generator 1c028cd0 f   vtm.obj
 0001:00028d50       _read_speaker_definition   1c029d50 f   vtm.obj
 0001:00029120       _InitializeVTM             1c02a120 f   vtm.obj
 0001:00029210       _SetSampleRate             1c02a210 f   vtm.obj
 0001:000292e0       _getmax                    1c02a2e0 f   vtm.obj
 0001:00029300       _setzeroabc                1c02a300 f   vtm.obj
 0001:00029380       _vtm_main@4                1c02a380 f   VTMIONT.OBJ
 0001:00029970       _OutputData                1c02a970 f   VTMIONT.OBJ
 0001:00029b20       _EmptyVtmPipe              1c02ab20 f   VTMIONT.OBJ
 0001:00029cb0       _SendVisualNotification    1c02acb0 f   VTMIONT.OBJ
 0001:00029d50       _mmioRead@12               1c02ad50 f   winmm:WINMM.dll
 0001:00029d56       _mmioClose@8               1c02ad56 f   winmm:WINMM.dll
 0001:00029d5c       _mmioAscend@12             1c02ad5c f   winmm:WINMM.dll
 0001:00029d62       _mmioDescend@16            1c02ad62 f   winmm:WINMM.dll
 0001:00029d68       _mmioOpenA@12              1c02ad68 f   winmm:WINMM.dll
 0001:00029d6e       _waveOutGetNumDevs@0       1c02ad6e f   winmm:WINMM.dll
 0001:00029d74       _waveOutClose@4            1c02ad74 f   winmm:WINMM.dll
 0001:00029d7a       _waveOutGetVolume@8        1c02ad7a f   winmm:WINMM.dll
 0001:00029d80       _waveOutSetVolume@8        1c02ad80 f   winmm:WINMM.dll
 0001:00029d86       _waveOutGetDevCapsA@12     1c02ad86 f   winmm:WINMM.dll
 0001:00029d8c       _waveOutGetID@8            1c02ad8c f   winmm:WINMM.dll
 0001:00029d92       _waveOutPause@4            1c02ad92 f   winmm:WINMM.dll
 0001:00029d98       _waveOutUnprepareHeader@12 1c02ad98 f   winmm:WINMM.dll
 0001:00029d9e       _waveOutWrite@12           1c02ad9e f   winmm:WINMM.dll
 0001:00029da4       _waveOutPrepareHeader@12   1c02ada4 f   winmm:WINMM.dll
 0001:00029daa       _waveOutOpen@24            1c02adaa f   winmm:WINMM.dll
 0001:00029db0       _waveOutReset@4            1c02adb0 f   winmm:WINMM.dll
 0001:00029db6       _waveOutRestart@4          1c02adb6 f   winmm:WINMM.dll
 0001:00029dbc       _waveOutGetPosition@12     1c02adbc f   winmm:WINMM.dll
 0001:00029dc2       _timeGetTime@0             1c02adc2 f   winmm:WINMM.dll
 0001:00029dc8       _LeaveCriticalSection@4    1c02adc8 f   kernel32:KERNEL32.dll
 0001:00029dce       _EnterCriticalSection@4    1c02adce f   kernel32:KERNEL32.dll
 0001:00029dd4       _Sleep@4                   1c02add4 f   kernel32:KERNEL32.dll
 0001:00029dda       _GetTickCount@0            1c02adda f   kernel32:KERNEL32.dll
 0001:00029de0       _WaitForSingleObject@8     1c02ade0 f   kernel32:KERNEL32.dll
 0001:00029de6       _ResetEvent@4              1c02ade6 f   kernel32:KERNEL32.dll
 0001:00029dec       _SetEvent@4                1c02adec f   kernel32:KERNEL32.dll
 0001:00029df2       _GlobalLock@4              1c02adf2 f   kernel32:KERNEL32.dll
 0001:00029df8       _GlobalAlloc@8             1c02adf8 f   kernel32:KERNEL32.dll
 0001:00029dfe       _GlobalReAlloc@12          1c02adfe f   kernel32:KERNEL32.dll
 0001:00029e04       _GlobalHandle@4            1c02ae04 f   kernel32:KERNEL32.dll
 0001:00029e0a       _GlobalFree@4              1c02ae0a f   kernel32:KERNEL32.dll
 0001:00029e10       _GlobalUnlock@4            1c02ae10 f   kernel32:KERNEL32.dll
 0001:00029e16       _GetThreadPriority@4       1c02ae16 f   kernel32:KERNEL32.dll
 0001:00029e1c       _SetThreadPriority@8       1c02ae1c f   kernel32:KERNEL32.dll
 0001:00029e22       _CloseHandle@4             1c02ae22 f   kernel32:KERNEL32.dll
 0001:00029e28       _GetExitCodeThread@8       1c02ae28 f   kernel32:KERNEL32.dll
 0001:00029e2e       _InitializeCriticalSection@4 1c02ae2e f   kernel32:KERNEL32.dll
 0001:00029e34       _DeleteCriticalSection@4   1c02ae34 f   kernel32:KERNEL32.dll
 0001:00029e3a       _CreateEventA@16           1c02ae3a f   kernel32:KERNEL32.dll
 0001:00029e40       _InterlockedExchange@8     1c02ae40 f   kernel32:KERNEL32.dll
 0001:00029e46       _GetCurrentThreadId@0      1c02ae46 f   kernel32:KERNEL32.dll
 0001:00029e4c       _UnmapViewOfFile@4         1c02ae4c f   kernel32:KERNEL32.dll
 0001:00029e52       _MapViewOfFile@20          1c02ae52 f   kernel32:KERNEL32.dll
 0001:00029e58       _GetLastError@0            1c02ae58 f   kernel32:KERNEL32.dll
 0001:00029e5e       _CreateFileMappingA@24     1c02ae5e f   kernel32:KERNEL32.dll
 0001:00029e64       _WaitForMultipleObjects@16 1c02ae64 f   kernel32:KERNEL32.dll
 0001:00029e6a       _IsBadWritePtr@8           1c02ae6a f   kernel32:KERNEL32.dll
 0001:00029e70       _GetCurrentThread@0        1c02ae70 f   kernel32:KERNEL32.dll
 0001:00029e76       _IsBadReadPtr@8            1c02ae76 f   kernel32:KERNEL32.dll
 0001:00029e7c       _RegisterWindowMessageA@4  1c02ae7c f   user32:USER32.dll
 0001:00029e82       _PostMessageA@16           1c02ae82 f   user32:USER32.dll
 0001:00029e88       _UnregisterClassA@8        1c02ae88 f   user32:USER32.dll
 0001:00029e8e       _SendMessageA@16           1c02ae8e f   user32:USER32.dll
 0001:00029e94       _DispatchMessageA@4        1c02ae94 f   user32:USER32.dll
 0001:00029e9a       _GetMessageA@16            1c02ae9a f   user32:USER32.dll
 0001:00029ea0       _ShowWindow@8              1c02aea0 f   user32:USER32.dll
 0001:00029ea6       _SetWindowLongA@12         1c02aea6 f   user32:USER32.dll
 0001:00029eac       _CreateWindowExA@48        1c02aeac f   user32:USER32.dll
 0001:00029eb2       _RegisterClassA@4          1c02aeb2 f   user32:USER32.dll
 0001:00029eb8       _LoadIconA@8               1c02aeb8 f   user32:USER32.dll
 0001:00029ebe       _LoadCursorA@8             1c02aebe f   user32:USER32.dll
 0001:00029ec4       _DefWindowProcA@16         1c02aec4 f   user32:USER32.dll
 0001:00029eca       _DestroyWindow@4           1c02aeca f   user32:USER32.dll
 0001:00029ed0       _PostQuitMessage@4         1c02aed0 f   user32:USER32.dll
 0001:00029ed6       _GetWindowLongA@8          1c02aed6 f   user32:USER32.dll
 0001:00029edc       _RegCloseKey@4             1c02aedc f   advapi32:ADVAPI32.dll
 0001:00029ee2       _RegQueryValueExA@24       1c02aee2 f   advapi32:ADVAPI32.dll
 0001:00029ee8       _RegOpenKeyExA@20          1c02aee8 f   advapi32:ADVAPI32.dll
 0001:00029eee       _CoTaskMemFree@4           1c02aeee f   ole32:ole32.dll
 0001:00029ef4       _CoTaskMemAlloc@4          1c02aef4 f   ole32:ole32.dll
 0001:00029efa       _fprintf                   1c02aefa f   MSVCRT:MSVCRT.dll
 0001:00029f00       _fopen                     1c02af00 f   MSVCRT:MSVCRT.dll
 0001:00029f06       _fclose                    1c02af06 f   MSVCRT:MSVCRT.dll
 0001:00029f0c       _printf                    1c02af0c f   MSVCRT:MSVCRT.dll
 0001:00029f12       _malloc                    1c02af12 f   MSVCRT:MSVCRT.dll
 0001:00029f18       _strncmp                   1c02af18 f   MSVCRT:MSVCRT.dll
 0001:00029f1e       _free                      1c02af1e f   MSVCRT:MSVCRT.dll
 0001:00029f24       _time                      1c02af24 f   MSVCRT:MSVCRT.dll
 0001:00029f2a       _fread                     1c02af2a f   MSVCRT:MSVCRT.dll
 0001:00029f30       _fflush                    1c02af30 f   MSVCRT:MSVCRT.dll
 0001:00029f36       __strtime                  1c02af36 f   MSVCRT:MSVCRT.dll
 0001:00029f3c       __strdate                  1c02af3c f   MSVCRT:MSVCRT.dll
 0001:00029f42       _memmove                   1c02af42 f   MSVCRT:MSVCRT.dll
 0001:00029f48       _fwrite                    1c02af48 f   MSVCRT:MSVCRT.dll
 0001:00029f50       __chkstk                   1c02af50 f   MSVCRT:chkstk.obj
 0001:00029f50       __alloca_probe             1c02af50 f   MSVCRT:chkstk.obj
 0001:00029f80       __access                   1c02af80 f   MSVCRT:MSVCRT.dll
 0001:00029f86       __searchenv                1c02af86 f   MSVCRT:MSVCRT.dll
 0001:00029f8c       __getcwd                   1c02af8c f   MSVCRT:MSVCRT.dll
 0001:00029f92       __beginthreadex            1c02af92 f   MSVCRT:MSVCRT.dll
 0001:00029f98       __endthreadex              1c02af98 f   MSVCRT:MSVCRT.dll
 0001:00029f9e       __stricmp                  1c02af9e f   MSVCRT:MSVCRT.dll
 0001:00029fa4       _atoi                      1c02afa4 f   MSVCRT:MSVCRT.dll
 0001:00029faa       _calloc                    1c02afaa f   MSVCRT:MSVCRT.dll
 0001:00029fb0       __ftol                     1c02afb0 f   MSVCRT:MSVCRT.dll
 0001:00029fb6       _atol                      1c02afb6 f   MSVCRT:MSVCRT.dll
 0001:00029fbc       _sprintf                   1c02afbc f   MSVCRT:MSVCRT.dll
 0001:00029fc2       _fseek                     1c02afc2 f   MSVCRT:MSVCRT.dll
 0002:00000000       __imp__RegOpenKeyExA@20    1c02b000     advapi32:ADVAPI32.dll
 0002:00000004       __imp__RegQueryValueExA@24 1c02b004     advapi32:ADVAPI32.dll
 0002:00000008       __imp__RegCloseKey@4       1c02b008     advapi32:ADVAPI32.dll
 0002:0000000c       \177ADVAPI32_NULL_THUNK_DATA 1c02b00c     advapi32:ADVAPI32.dll
 0002:00000010       __imp__InterlockedExchange@8 1c02b010     kernel32:KERNEL32.dll
 0002:00000014       __imp__GetCurrentThreadId@0 1c02b014     kernel32:KERNEL32.dll
 0002:00000018       __imp__GlobalLock@4        1c02b018     kernel32:KERNEL32.dll
 0002:0000001c       __imp__GlobalAlloc@8       1c02b01c     kernel32:KERNEL32.dll
 0002:00000020       __imp__IsBadReadPtr@8      1c02b020     kernel32:KERNEL32.dll
 0002:00000024       __imp__GetCurrentThread@0  1c02b024     kernel32:KERNEL32.dll
 0002:00000028       __imp__IsBadWritePtr@8     1c02b028     kernel32:KERNEL32.dll
 0002:0000002c       __imp__WaitForMultipleObjects@16 1c02b02c     kernel32:KERNEL32.dll
 0002:00000030       __imp__CreateFileMappingA@24 1c02b030     kernel32:KERNEL32.dll
 0002:00000034       __imp__GetLastError@0      1c02b034     kernel32:KERNEL32.dll
 0002:00000038       __imp__SetEvent@4          1c02b038     kernel32:KERNEL32.dll
 0002:0000003c       __imp__MapViewOfFile@20    1c02b03c     kernel32:KERNEL32.dll
 0002:00000040       __imp__CreateEventA@16     1c02b040     kernel32:KERNEL32.dll
 0002:00000044       __imp__DeleteCriticalSection@4 1c02b044     kernel32:KERNEL32.dll
 0002:00000048       __imp__InitializeCriticalSection@4 1c02b048     kernel32:KERNEL32.dll
 0002:0000004c       __imp__GetExitCodeThread@8 1c02b04c     kernel32:KERNEL32.dll
 0002:00000050       __imp__LeaveCriticalSection@4 1c02b050     kernel32:KERNEL32.dll
 0002:00000054       __imp__EnterCriticalSection@4 1c02b054     kernel32:KERNEL32.dll
 0002:00000058       __imp__Sleep@4             1c02b058     kernel32:KERNEL32.dll
 0002:0000005c       __imp__GetTickCount@0      1c02b05c     kernel32:KERNEL32.dll
 0002:00000060       __imp__WaitForSingleObject@8 1c02b060     kernel32:KERNEL32.dll
 0002:00000064       __imp__ResetEvent@4        1c02b064     kernel32:KERNEL32.dll
 0002:00000068       __imp__CloseHandle@4       1c02b068     kernel32:KERNEL32.dll
 0002:0000006c       __imp__UnmapViewOfFile@4   1c02b06c     kernel32:KERNEL32.dll
 0002:00000070       __imp__GlobalReAlloc@12    1c02b070     kernel32:KERNEL32.dll
 0002:00000074       __imp__GlobalHandle@4      1c02b074     kernel32:KERNEL32.dll
 0002:00000078       __imp__GlobalFree@4        1c02b078     kernel32:KERNEL32.dll
 0002:0000007c       __imp__GlobalUnlock@4      1c02b07c     kernel32:KERNEL32.dll
 0002:00000080       __imp__GetThreadPriority@4 1c02b080     kernel32:KERNEL32.dll
 0002:00000084       __imp__SetThreadPriority@8 1c02b084     kernel32:KERNEL32.dll
 0002:00000088       \177KERNEL32_NULL_THUNK_DATA 1c02b088     kernel32:KERNEL32.dll
 0002:0000008c       __imp__memmove             1c02b08c     MSVCRT:MSVCRT.dll
 0002:00000090       __imp__fwrite              1c02b090     MSVCRT:MSVCRT.dll
 0002:00000094       __imp___access             1c02b094     MSVCRT:MSVCRT.dll
 0002:00000098       __imp___searchenv          1c02b098     MSVCRT:MSVCRT.dll
 0002:0000009c       __imp___getcwd             1c02b09c     MSVCRT:MSVCRT.dll
 0002:000000a0       __imp___beginthreadex      1c02b0a0     MSVCRT:MSVCRT.dll
 0002:000000a4       __imp__fclose              1c02b0a4     MSVCRT:MSVCRT.dll
 0002:000000a8       __imp__fseek               1c02b0a8     MSVCRT:MSVCRT.dll
 0002:000000ac       __imp___endthreadex        1c02b0ac     MSVCRT:MSVCRT.dll
 0002:000000b0       __imp___stricmp            1c02b0b0     MSVCRT:MSVCRT.dll
 0002:000000b4       __imp__atoi                1c02b0b4     MSVCRT:MSVCRT.dll
 0002:000000b8       __imp__calloc              1c02b0b8     MSVCRT:MSVCRT.dll
 0002:000000bc       __imp___ftol               1c02b0bc     MSVCRT:MSVCRT.dll
 0002:000000c0       __imp__atol                1c02b0c0     MSVCRT:MSVCRT.dll
 0002:000000c4       __imp__sprintf             1c02b0c4     MSVCRT:MSVCRT.dll
 0002:000000c8       __imp___strdate            1c02b0c8     MSVCRT:MSVCRT.dll
 0002:000000cc       __imp__fopen               1c02b0cc     MSVCRT:MSVCRT.dll
 0002:000000d0       __imp__fprintf             1c02b0d0     MSVCRT:MSVCRT.dll
 0002:000000d4       __imp___strtime            1c02b0d4     MSVCRT:MSVCRT.dll
 0002:000000d8       __imp__malloc              1c02b0d8     MSVCRT:MSVCRT.dll
 0002:000000dc       __imp__strncmp             1c02b0dc     MSVCRT:MSVCRT.dll
 0002:000000e0       __imp__printf              1c02b0e0     MSVCRT:MSVCRT.dll
 0002:000000e4       __imp__time                1c02b0e4     MSVCRT:MSVCRT.dll
 0002:000000e8       __imp__fread               1c02b0e8     MSVCRT:MSVCRT.dll
 0002:000000ec       __imp__free                1c02b0ec     MSVCRT:MSVCRT.dll
 0002:000000f0       __imp__fflush              1c02b0f0     MSVCRT:MSVCRT.dll
 0002:000000f4       \177MSVCRT_NULL_THUNK_DATA 1c02b0f4     MSVCRT:MSVCRT.dll
 0002:000000f8       __imp__LoadCursorA@8       1c02b0f8     user32:USER32.dll
 0002:000000fc       __imp__SetWindowLongA@12   1c02b0fc     user32:USER32.dll
 0002:00000100       __imp__RegisterClassA@4    1c02b100     user32:USER32.dll
 0002:00000104       __imp__PostQuitMessage@4   1c02b104     user32:USER32.dll
 0002:00000108       __imp__GetWindowLongA@8    1c02b108     user32:USER32.dll
 0002:0000010c       __imp__LoadIconA@8         1c02b10c     user32:USER32.dll
 0002:00000110       __imp__CreateWindowExA@48  1c02b110     user32:USER32.dll
 0002:00000114       __imp__DispatchMessageA@4  1c02b114     user32:USER32.dll
 0002:00000118       __imp__ShowWindow@8        1c02b118     user32:USER32.dll
 0002:0000011c       __imp__GetMessageA@16      1c02b11c     user32:USER32.dll
 0002:00000120       __imp__PostMessageA@16     1c02b120     user32:USER32.dll
 0002:00000124       __imp__SendMessageA@16     1c02b124     user32:USER32.dll
 0002:00000128       __imp__RegisterWindowMessageA@4 1c02b128     user32:USER32.dll
 0002:0000012c       __imp__DefWindowProcA@16   1c02b12c     user32:USER32.dll
 0002:00000130       __imp__DestroyWindow@4     1c02b130     user32:USER32.dll
 0002:00000134       __imp__UnregisterClassA@8  1c02b134     user32:USER32.dll
 0002:00000138       \177USER32_NULL_THUNK_DATA 1c02b138     user32:USER32.dll
 0002:0000013c       __imp__waveOutRestart@4    1c02b13c     winmm:WINMM.dll
 0002:00000140       __imp__waveOutGetPosition@12 1c02b140     winmm:WINMM.dll
 0002:00000144       __imp__waveOutClose@4      1c02b144     winmm:WINMM.dll
 0002:00000148       __imp__mmioClose@8         1c02b148     winmm:WINMM.dll
 0002:0000014c       __imp__mmioAscend@12       1c02b14c     winmm:WINMM.dll
 0002:00000150       __imp__mmioDescend@16      1c02b150     winmm:WINMM.dll
 0002:00000154       __imp__mmioOpenA@12        1c02b154     winmm:WINMM.dll
 0002:00000158       __imp__waveOutGetNumDevs@0 1c02b158     winmm:WINMM.dll
 0002:0000015c       __imp__mmioRead@12         1c02b15c     winmm:WINMM.dll
 0002:00000160       __imp__timeGetTime@0       1c02b160     winmm:WINMM.dll
 0002:00000164       __imp__waveOutGetVolume@8  1c02b164     winmm:WINMM.dll
 0002:00000168       __imp__waveOutUnprepareHeader@12 1c02b168     winmm:WINMM.dll
 0002:0000016c       __imp__waveOutReset@4      1c02b16c     winmm:WINMM.dll
 0002:00000170       __imp__waveOutOpen@24      1c02b170     winmm:WINMM.dll
 0002:00000174       __imp__waveOutPrepareHeader@12 1c02b174     winmm:WINMM.dll
 0002:00000178       __imp__waveOutWrite@12     1c02b178     winmm:WINMM.dll
 0002:0000017c       __imp__waveOutPause@4      1c02b17c     winmm:WINMM.dll
 0002:00000180       __imp__waveOutGetID@8      1c02b180     winmm:WINMM.dll
 0002:00000184       __imp__waveOutGetDevCapsA@12 1c02b184     winmm:WINMM.dll
 0002:00000188       __imp__waveOutSetVolume@8  1c02b188     winmm:WINMM.dll
 0002:0000018c       \177WINMM_NULL_THUNK_DATA  1c02b18c     winmm:WINMM.dll
 0002:00000190       __imp__CoTaskMemFree@4     1c02b190     ole32:ole32.dll
 0002:00000194       __imp__CoTaskMemAlloc@4    1c02b194     ole32:ole32.dll
 0002:00000198       \177ole32_NULL_THUNK_DATA  1c02b198     ole32:ole32.dll
 0002:000001c0       __real@8@4008fa00000000000000 1c02b1c0     playaud.obj
 0002:000001c8       __real@8@3ff8ccccccccccccd000 1c02b1c8     playaud.obj
 0002:000001d0       __real@8@3ffca000000000000000 1c02b1d0     PLAYTONE.OBJ
 0002:000001d8       __real@8@40098000000000000000 1c02b1d8     PLAYTONE.OBJ
 0002:000001e0       __real@8@40078000000000000000 1c02b1e0     PLAYTONE.OBJ
 0002:000001e8       __real@8@bff583126e978d4fe000 1c02b1e8     PLAYTONE.OBJ
 0002:000001f0       __real@8@3ff683126e978d4fe000 1c02b1f0     PLAYTONE.OBJ
 0002:000001f8       __real@8@00000000000000000000 1c02b1f8     SYNC.OBJ
 0002:00000200       __real@8@3fff8000000000000000 1c02b200     vtm.obj
 0002:00000208       __IMPORT_DESCRIPTOR_WINMM  1c02b208     winmm:WINMM.dll
 0002:0000021c       __IMPORT_DESCRIPTOR_KERNEL32 1c02b21c     kernel32:KERNEL32.dll
 0002:00000230       __IMPORT_DESCRIPTOR_USER32 1c02b230     user32:USER32.dll
 0002:00000244       __IMPORT_DESCRIPTOR_ADVAPI32 1c02b244     advapi32:ADVAPI32.dll
 0002:00000258       __IMPORT_DESCRIPTOR_ole32  1c02b258     ole32:ole32.dll
 0002:0000026c       __IMPORT_DESCRIPTOR_MSVCRT 1c02b26c     MSVCRT:MSVCRT.dll
 0002:00000280       __NULL_IMPORT_DESCRIPTOR   1c02b280     winmm:WINMM.dll
 0003:00000000       _char_types                1c02d000     cm_char.obj
 0003:00000138       _phoneme_modes             1c02d138     cm_copt.obj
 0003:00000154       _log_options               1c02d154     cm_copt.obj
 0003:00000180       _say_options               1c02d180     cm_copt.obj
 0003:0000019c       _error_options             1c02d19c     cm_copt.obj
 0003:000001b4       _flush_options             1c02d1b4     cm_copt.obj
 0003:000001cc       _punct_options             1c02d1cc     cm_copt.obj
 0003:000001e0       _skip_options              1c02d1e0     cm_copt.obj
 0003:000001fc       _volume_options            1c02d1fc     cm_copt.obj
 0003:00000228       _lang_options              1c02d228     cm_copt.obj
 0003:0000025c       _mode_options              1c02d25c     cm_copt.obj
 0003:00000290       _pronounce_options         1c02d290     cm_copt.obj
 0003:000002a0       _voice_names               1c02d2a0     cm_copt.obj
 0003:000002cc       _index_options             1c02d2cc     cm_copt.obj
 0003:000002f0       _gender_options            1c02d2f0     cm_copt.obj
 0003:00000300       _define_options            1c02d300     cm_copt.obj
 0003:00000388       _command_table             1c02d388     cm_copt.obj
 0003:000006bc       _total_commands            1c02d6bc     cm_copt.obj
 0003:00000fe4       _tlikmap                   1c02dfe4     cm_util.obj
 0003:00000ff4       _tlitone0                  1c02dff4     cm_util.obj
 0003:00001014       _tlitone1                  1c02e014     cm_util.obj
 0003:00001034       _tliproto                  1c02e034     cm_util.obj
 0003:00001048       _wMulawTable               1c02e048     cmd_wav.obj
 0003:00001248       _standard_notices          1c02e248     DECSTD97.OBJ
 0003:00001a80       _ls_fold                   1c02ea80     ls_chari.obj
 0003:00001b80       _ls_lower                  1c02eb80     ls_chari.obj
 0003:00001c80       _ls_upper                  1c02ec80     ls_chari.obj
 0003:00001d80       _ls_char_feat              1c02ed80     ls_chari.obj
 0003:000021a8       _homo_table                1c02f1a8     ls_homo.obj
 0003:00002370       _math_table                1c02f370     ls_math.obj
 0003:000023c8       _ascky_tab                 1c02f3c8     ls_math.obj
 0003:0000263c       _spell_it                  1c02f63c     ls_speli.obj
 0003:000028e0       _form_class_strings        1c02f8e0     ls_suff.obj
 0003:00002aa0       _suffix_index              1c02faa0     ls_suffi.obj
 0003:00002b0c       _suffix_table              1c02fb0c     ls_suffi.obj
 0003:00004270       _lp                        1c031270     lsa_coni.obj
 0003:00004330       _name_types                1c031330     lsa_coni.obj
 0003:00004350       _elim_rules                1c031350     lsa_coni.obj
 0003:00004364       _preftab                   1c031364     lsa_coni.obj
 0003:0000444c       _lsctype                   1c03144c     lsa_coni.obj
 0003:0000464c       _nabtab                    1c03164c     lsa_coni.obj
 0003:00004928       _nwdtab                    1c031928     lsa_coni.obj
 0003:00004994       _m_jan                     1c031994     lsa_coni.obj
 0003:00004998       _m_feb                     1c031998     lsa_coni.obj
 0003:0000499c       _m_mar                     1c03199c     lsa_coni.obj
 0003:000049a0       _m_apr                     1c0319a0     lsa_coni.obj
 0003:000049a4       _m_may                     1c0319a4     lsa_coni.obj
 0003:000049a8       _m_jun                     1c0319a8     lsa_coni.obj
 0003:000049ac       _m_jul                     1c0319ac     lsa_coni.obj
 0003:000049b0       _m_aug                     1c0319b0     lsa_coni.obj
 0003:000049b4       _m_sep                     1c0319b4     lsa_coni.obj
 0003:000049b8       _m_oct                     1c0319b8     lsa_coni.obj
 0003:000049bc       _m_nov                     1c0319bc     lsa_coni.obj
 0003:000049c0       _m_dec                     1c0319c0     lsa_coni.obj
 0003:000049c4       _months                    1c0319c4     lsa_coni.obj
 0003:000049f4       _pdegree                   1c0319f4     lsa_coni.obj
 0003:000049fc       _pminus                    1c0319fc     lsa_coni.obj
 0003:00004a04       _pplus                     1c031a04     lsa_coni.obj
 0003:00004a0c       _pstreet                   1c031a0c     lsa_coni.obj
 0003:00004a14       _psaint                    1c031a14     lsa_coni.obj
 0003:00004a1c       _pdoctor                   1c031a1c     lsa_coni.obj
 0003:00004a24       _pdrive                    1c031a24     lsa_coni.obj
 0003:00004a2c       _pOH                       1c031a2c     lsa_coni.obj
 0003:00004a30       _p0                        1c031a30     lsa_coni.obj
 0003:00004a38       _p1                        1c031a38     lsa_coni.obj
 0003:00004a40       _p2                        1c031a40     lsa_coni.obj
 0003:00004a44       _p3                        1c031a44     lsa_coni.obj
 0003:00004a4c       _p4                        1c031a4c     lsa_coni.obj
 0003:00004a50       _p5                        1c031a50     lsa_coni.obj
 0003:00004a58       _p6                        1c031a58     lsa_coni.obj
 0003:00004a60       _p7                        1c031a60     lsa_coni.obj
 0003:00004a68       _p8                        1c031a68     lsa_coni.obj
 0003:00004a6c       _p9                        1c031a6c     lsa_coni.obj
 0003:00004a74       _up0                       1c031a74     lsa_coni.obj
 0003:00004a7c       _up1                       1c031a7c     lsa_coni.obj
 0003:00004a80       _up2                       1c031a80     lsa_coni.obj
 0003:00004a84       _up3                       1c031a84     lsa_coni.obj
 0003:00004a88       _up4                       1c031a88     lsa_coni.obj
 0003:00004a8c       _up5                       1c031a8c     lsa_coni.obj
 0003:00004a90       _up6                       1c031a90     lsa_coni.obj
 0003:00004a98       _up7                       1c031a98     lsa_coni.obj
 0003:00004aa0       _up8                       1c031aa0     lsa_coni.obj
 0003:00004aa4       _up9                       1c031aa4     lsa_coni.obj
 0003:00004aa8       _punits                    1c031aa8     lsa_coni.obj
 0003:00004ad0       _upunits                   1c031ad0     lsa_coni.obj
 0003:00004af8       _phundred                  1c031af8     lsa_coni.obj
 0003:00004b04       _pthousand                 1c031b04     lsa_coni.obj
 0003:00004b0c       _pmillion                  1c031b0c     lsa_coni.obj
 0003:00004b14       _pbillion                  1c031b14     lsa_coni.obj
 0003:00004b1c       _ptrillion                 1c031b1c     lsa_coni.obj
 0003:00004b28       _pquadrillion              1c031b28     lsa_coni.obj
 0003:00004b34       _p10                       1c031b34     lsa_coni.obj
 0003:00004b3c       _p11                       1c031b3c     lsa_coni.obj
 0003:00004b44       _p12                       1c031b44     lsa_coni.obj
 0003:00004b4c       _p13                       1c031b4c     lsa_coni.obj
 0003:00004b58       _p14                       1c031b58     lsa_coni.obj
 0003:00004b64       _p15                       1c031b64     lsa_coni.obj
 0003:00004b70       _p16                       1c031b70     lsa_coni.obj
 0003:00004b7c       _p17                       1c031b7c     lsa_coni.obj
 0003:00004b88       _p18                       1c031b88     lsa_coni.obj
 0003:00004b90       _p19                       1c031b90     lsa_coni.obj
 0003:00004b9c       _pteens                    1c031b9c     lsa_coni.obj
 0003:00004bc4       _p20                       1c031bc4     lsa_coni.obj
 0003:00004bcc       _p30                       1c031bcc     lsa_coni.obj
 0003:00004bd4       _p40                       1c031bd4     lsa_coni.obj
 0003:00004bdc       _p50                       1c031bdc     lsa_coni.obj
 0003:00004be4       _p60                       1c031be4     lsa_coni.obj
 0003:00004bec       _p70                       1c031bec     lsa_coni.obj
 0003:00004bf8       _p80                       1c031bf8     lsa_coni.obj
 0003:00004c00       _p90                       1c031c00     lsa_coni.obj
 0003:00004c08       _ptens                     1c031c08     lsa_coni.obj
 0003:00004c30       _ppence                    1c031c30     lsa_coni.obj
 0003:00004c38       _ppercent                  1c031c38     lsa_coni.obj
 0003:00004c44       _pcent                     1c031c44     lsa_coni.obj
 0003:00004c4c       _ppound                    1c031c4c     lsa_coni.obj
 0003:00004c54       _pdollar                   1c031c54     lsa_coni.obj
 0003:00004c5c       _pand                      1c031c5c     lsa_coni.obj
 0003:00004c64       _ppoint                    1c031c64     lsa_coni.obj
 0003:00004c6c       _ptt2tp                    1c031c6c     lsa_coni.obj
 0003:00004c84       _pjan                      1c031c84     lsa_coni.obj
 0003:00004c90       _pfeb                      1c031c90     lsa_coni.obj
 0003:00004c9c       _pmar                      1c031c9c     lsa_coni.obj
 0003:00004ca4       _papr                      1c031ca4     lsa_coni.obj
 0003:00004cac       _pmay                      1c031cac     lsa_coni.obj
 0003:00004cb0       _pjun                      1c031cb0     lsa_coni.obj
 0003:00004cb8       _pjul                      1c031cb8     lsa_coni.obj
 0003:00004cc0       _paug                      1c031cc0     lsa_coni.obj
 0003:00004cc8       _psep                      1c031cc8     lsa_coni.obj
 0003:00004cd4       _poct                      1c031cd4     lsa_coni.obj
 0003:00004cdc       _pnov                      1c031cdc     lsa_coni.obj
 0003:00004ce8       _pdec                      1c031ce8     lsa_coni.obj
 0003:00004cf4       _pmonths                   1c031cf4     lsa_coni.obj
 0003:00004d24       _p0th                      1c031d24     lsa_coni.obj
 0003:00004d2c       _p1st                      1c031d2c     lsa_coni.obj
 0003:00004d34       _p2nd                      1c031d34     lsa_coni.obj
 0003:00004d3c       _p3rd                      1c031d3c     lsa_coni.obj
 0003:00004d44       _p4th                      1c031d44     lsa_coni.obj
 0003:00004d4c       _p5th                      1c031d4c     lsa_coni.obj
 0003:00004d54       _p6th                      1c031d54     lsa_coni.obj
 0003:00004d5c       _p7th                      1c031d5c     lsa_coni.obj
 0003:00004d64       _p8th                      1c031d64     lsa_coni.obj
 0003:00004d68       _p9th                      1c031d68     lsa_coni.obj
 0003:00004d70       _pordin                    1c031d70     lsa_coni.obj
 0003:00004d98       _phalf                     1c031d98     lsa_coni.obj
 0003:00004da0       _phalves                   1c031da0     lsa_coni.obj
 0003:00004da8       _pthe                      1c031da8     lsa_coni.obj
 0003:00004dac       _pof                       1c031dac     lsa_coni.obj
 0003:00004db0       _feats                     1c031db0     lsa_coni.obj
 0003:00004df0       _pfeat                     1c031df0     lsa_coni.obj
 0003:00004ee0       _sdic                      1c031ee0     lsa_coni.obj
 0003:00004f0c       _predic                    1c031f0c     lsa_coni.obj
 0003:00004f2c       _whdic                     1c031f2c     lsa_coni.obj
 0003:00004fd4       _french                    1c031fd4     lsa_fr.obj
 0003:00009cb8       _german                    1c036cb8     lsa_gr.obj
 0003:0000e99c       _irish                     1c03b99c     lsa_ir.obj
 0003:00013680       _italian                   1c040680     lsa_it.obj
 0003:00018364       _japan                     1c045364     lsa_ja.obj
 0003:0001d048       _acna_lswtab               1c04a048     lsa_rtbi.obj
 0003:000211f8       _acna_lsbtab               1c04e1f8     lsa_rtbi.obj
 0003:00026ba4       _slavic                    1c053ba4     lsa_sl.obj
 0003:0002b888       _spanish                   1c058888     lsa_sp.obj
 0003:00030570       _verbs                     1c05d570     lsa_task.obj
 0003:00030808       _english                   1c05d808     lsa_us.obj
 0003:000358f4       _szLocalMachineDECtalk     1c0628f4     lsw_main.obj
 0003:000358f8       _szCurrentUsersDECtalk     1c0628f8     lsw_main.obj
 0003:000358fc       _szMainDictDef             1c0628fc     lsw_main.obj
 0003:00035900       _szUserDictDef             1c062900     lsw_main.obj
 0003:00035904       _szAbbrDictDef             1c062904     lsw_main.obj
 0003:00035a4c       _parser_char_types         1c062a4c     Par_char.obj
 0003:00035c50       _par_lower                 1c062c50     Par_char.obj
 0003:00035d50       _par_upper                 1c062d50     Par_char.obj
 0003:00035e50       _par_illegal_cluster       1c062e50     Par_char.obj
 0003:00035f18       _char_type_table           1c062f18     Par_pars.obj
 0003:00035f58       _perform_action_funcs      1c062f58     Par_pars.obj
 0003:0003610c       ??_C@_0EB@PJJM@par_set_return_level?$DLtoo?5many?5le@ 1c06310c     Par_pars.obj
 0003:00036150       ??_C@_0DP@EDMP@par_get_return_level?$DLno?5place?5to@ 1c063150     Par_pars.obj
 0003:00036190       _num_rule_sections         1c063190     par_rule.obj
 0003:00036194       _rule_sections             1c063194     par_rule.obj
 0003:000361a0       _num_rules                 1c0631a0     par_rule.obj
 0003:000361a4       _rule_index_table          1c0631a4     par_rule.obj
 0003:00036484       _rule_data_table           1c063484     par_rule.obj
 0003:00038530       _dict_point                1c065530     par_rule.obj
 0003:000385e0       _dict_index_table          1c0655e0     par_rule.obj
 0003:00038ae8       _dict_data_table           1c065ae8     par_rule.obj
 0003:000397bc       _noun_character_mapping_table 1c0667bc     par_rule.obj
 0003:00039bbc       _f0msegtars                1c066bbc     ph_drwt0.obj
 0003:00039c30       _f0fsegtars                1c066c30     ph_drwt0.obj
 0003:00039cac       _inhdr                     1c066cac     ph_romi.obj
 0003:00039d20       _mindur                    1c066d20     ph_romi.obj
 0003:00039d94       _burdr                     1c066d94     ph_romi.obj
 0003:00039e08       _f0segtars                 1c066e08     ph_romi.obj
 0003:00039e7c       _begtyp                    1c066e7c     ph_romi.obj
 0003:00039ef0       _endtyp                    1c066ef0     ph_romi.obj
 0003:00039f64       _place                     1c066f64     ph_romi.obj
 0003:00039fd8       _featb                     1c066fd8     ph_romi.obj
 0003:0003a0ac       _maltar                    1c0670ac     ph_romi.obj
 0003:0003a3cc       _femtar                    1c0673cc     ph_romi.obj
 0003:0003a6ec       _maldip                    1c0676ec     ph_romi.obj
 0003:0003aa70       _femdip                    1c067a70     ph_romi.obj
 0003:0003adfc       _ptram                     1c067dfc     ph_romi.obj
 0003:0003ae70       _malamp                    1c067e70     ph_romi.obj
 0003:0003b2ac       _femamp                    1c0682ac     ph_romi.obj
 0003:0003b6e8       _plocu                     1c0686e8     ph_romi.obj
 0003:0003b8b0       _maleloc                   1c0688b0     ph_romi.obj
 0003:0003bee4       _femloc                    1c068ee4     ph_romi.obj
 0003:0003c518       _f0glstp                   1c069518     ph_romi.obj
 0003:0003c528       _f0_phrase_position        1c069528     ph_romi.obj
 0003:0003c538       _f0_stress_level           1c069538     ph_romi.obj
 0003:0003c548       _getcosine                 1c069548     ph_romi.obj
 0003:0003c5c8       _lineartilt                1c0695c8     ph_romi.obj
 0003:0003c608       _notetab                   1c069608     ph_romi.obj
 0003:0003c654       _partyp                    1c069654     ph_romi.obj
 0003:0003c664       _divtab                    1c069664     ph_romi.obj
 0003:0003c6c8       _parini                    1c0696c8     ph_romi.obj
 0003:0003c6e8       _bounftab                  1c0696e8     ph_romi.obj
 0003:0003c700       _ascky_check               1c069700     ph_syl.obj
 0003:0003c770       _common_affixes            1c069770     ph_syl.obj
 0003:0003c8a4       _syl_vowels                1c0698a4     ph_syl.obj
 0003:0003c8b8       _syl_cons                  1c0698b8     ph_syl.obj
 0003:0003ce18       _paul_8                    1c069e18     ph_vdefi.obj
 0003:0003ce5c       _betty_8                   1c069e5c     ph_vdefi.obj
 0003:0003cea0       _harry_8                   1c069ea0     ph_vdefi.obj
 0003:0003cee4       _frank_8                   1c069ee4     ph_vdefi.obj
 0003:0003cf28       _kit_8                     1c069f28     ph_vdefi.obj
 0003:0003cf6c       _ursula_8                  1c069f6c     ph_vdefi.obj
 0003:0003cfb0       _rita_8                    1c069fb0     ph_vdefi.obj
 0003:0003cff4       _wendy_8                   1c069ff4     ph_vdefi.obj
 0003:0003d038       _dennis_8                  1c06a038     ph_vdefi.obj
 0003:0003d07c       _paul                      1c06a07c     ph_vdefi.obj
 0003:0003d0c0       _betty                     1c06a0c0     ph_vdefi.obj
 0003:0003d104       _harry                     1c06a104     ph_vdefi.obj
 0003:0003d148       _frank                     1c06a148     ph_vdefi.obj
 0003:0003d18c       _kit                       1c06a18c     ph_vdefi.obj
 0003:0003d1d0       _ursula                    1c06a1d0     ph_vdefi.obj
 0003:0003d214       _rita                      1c06a214     ph_vdefi.obj
 0003:0003d258       _wendy                     1c06a258     ph_vdefi.obj
 0003:0003d29c       _dennis                    1c06a29c     ph_vdefi.obj
 0003:0003d2e0       _paul_8_tune               1c06a2e0     ph_vdefi.obj
 0003:0003d324       _betty_8_tune              1c06a324     ph_vdefi.obj
 0003:0003d368       _harry_8_tune              1c06a368     ph_vdefi.obj
 0003:0003d3ac       _frank_8_tune              1c06a3ac     ph_vdefi.obj
 0003:0003d3f0       _kit_8_tune                1c06a3f0     ph_vdefi.obj
 0003:0003d434       _ursula_8_tune             1c06a434     ph_vdefi.obj
 0003:0003d478       _rita_8_tune               1c06a478     ph_vdefi.obj
 0003:0003d4bc       _wendy_8_tune              1c06a4bc     ph_vdefi.obj
 0003:0003d500       _dennis_8_tune             1c06a500     ph_vdefi.obj
 0003:0003d544       _paul_tune                 1c06a544     ph_vdefi.obj
 0003:0003d588       _betty_tune                1c06a588     ph_vdefi.obj
 0003:0003d5cc       _harry_tune                1c06a5cc     ph_vdefi.obj
 0003:0003d610       _frank_tune                1c06a610     ph_vdefi.obj
 0003:0003d654       _kit_tune                  1c06a654     ph_vdefi.obj
 0003:0003d698       _ursula_tune               1c06a698     ph_vdefi.obj
 0003:0003d6dc       _rita_tune                 1c06a6dc     ph_vdefi.obj
 0003:0003d720       _wendy_tune                1c06a720     ph_vdefi.obj
 0003:0003d764       _dennis_tune               1c06a764     ph_vdefi.obj
 0003:0003d7a8       _limit                     1c06a7a8     ph_vdefi.obj
 0003:0003d830       _logspnames                1c06a830     phlog.obj
 0003:0003da48       _Shm_t                     1c06aa48     playaud.obj
 0003:0003da60       _pShm_t                    1c06aa60     playaud.obj
 0003:0003da68       _SineTable                 1c06aa68     PLAYTONE.OBJ
 0003:0003fbf8       _szLicenseKey              1c06cbf8     ttsapi.obj
 0003:000400f8       _usa_type                  1c06d0f8     USA_INIT.OBJ
 0003:000404f8       _usa_ascky                 1c06d4f8     USA_INIT.OBJ
 0003:00040574       _usa_ascky_rev             1c06d574     USA_INIT.OBJ
 0003:00040774       _usa_arpa                  1c06d774     USA_INIT.OBJ
 0003:00040868       _usa_error                 1c06d868     USA_INIT.OBJ
 0003:0004120c       _B0                        1c06e20c     vtm.obj
 0003:000413cc       _azero_tab                 1c06e3cc     vtm.obj
 0003:00041414       _bzero_tab                 1c06e414     vtm.obj
 0003:0004145c       _czero_tab                 1c06e45c     vtm.obj
 0003:000414a4       _amptable                  1c06e4a4     vtm.obj
 0003:00041554       _cosine_table              1c06e554     vtm.obj
 0003:00041a38       _radius_table              1c06ea38     vtm.obj
 0003:00041f1c       _tiltf                     1c06ef1c     vtm.obj
 0003:00041f70       _tiltbw                    1c06ef70     vtm.obj
 0003:00041fc4       _logtab                    1c06efc4     vtm.obj
 0003:000424b0       _loginv                    1c06f4b0     vtm.obj
 0003:00042640       _decaytab                  1c06f640     vtm.obj
 0003:00042694       _Tgaintab                  1c06f694     vtm.obj
 0003:00042864       _pnone                     1c06f864     lsa_coni.obj
 0003:00042874       _noun_num_character_in_mapping 1c06f874     par_rule.obj
 0003:00042878       _noun_number_of_conjunctions 1c06f878     par_rule.obj
 0003:0004287c       _noun_conjunction          1c06f87c     par_rule.obj
 0003:00042880       _noun_index_table          1c06f880     par_rule.obj
 0003:00042884       _noun_data_table           1c06f884     par_rule.obj
 0003:00042888       _oarcnt                    1c06f888     ph_drwt0.obj
 0003:0004288c       _val_tune                  1c06f88c     ph_vdefi.obj
 0003:000428d0       _tlPlayAudio               1c06f8d0     playaud.obj
 0003:00042980       _gnInstanceCounter         1c06f980     ttsapi.obj
 0003:00042988       _tl_gnInstanceCounter      1c06f988     ttsapi.obj
 0003:00042994       _gpufdic                   1c06f994     ttsapi.obj
 0003:00042998       _gufdic_entries            1c06f998     ttsapi.obj
 0003:000429a4       _hMapObject                1c06f9a4     ttsapi.obj
 0003:00042ad8       _ranadd                    1c06fad8     <common>
 0003:00042adc       _noisec                    1c06fadc     <common>
 0003:00042ae0       _ranmul                    1c06fae0     <common>
 0003:00042ae4       _radius                    1c06fae4     <common>
 0003:00042ae8       _LanguageParamsArray       1c06fae8     <common>
 0003:00042b00       _name                      1c06fb00     <common>
 0003:00042b40       _name_size                 1c06fb40     <common>

 entry point at        0001:00023b20

 Static symbols

 0001:00023cd0       _GetFromSomeWhere          1c024cd0 f   ttsapi.obj
 0001:000244d0       _StartDecTalkSystemThread  1c0254d0 f   ttsapi.obj
 0001:000245f0       _DeleteTextToSpeechObjects 1c0255f0 f   ttsapi.obj
 0001:00025620       _WaitForTextQueuingToComplete 1c026620 f   ttsapi.obj
 0001:00026170       _GetBuffer                 1c027170 f   ttsapi.obj
 0001:00026590       _SetSpeaker                1c027590 f   ttsapi.obj
 0001:000265b0       _TextToSpeechThreadMain@4  1c0275b0 f   ttsapi.obj
 0001:00026640       _InitTextToSpeechWindow    1c027640 f   ttsapi.obj
 0001:00026740       _TextToSpeechWndProc@16    1c027740 f   ttsapi.obj
 0001:000267c0       _Process_TTS_Message       1c0277c0 f   ttsapi.obj
 0001:000269a0       _LinearToMuLaw             1c0279a0 f   ttsapi.obj
 0001:00026af0       _FixMemoryLockup           1c027af0 f   ttsapi.obj
 0001:00026c90       _WaitForEmptyPipes         1c027c90 f   ttsapi.obj
 0001:00023970       _WaitForAudioSampleToPlay  1c024970 f   SYNC.OBJ
 0001:00023650       _spc_size                  1c024650 f   SPC.OBJ
 0001:00023580       _ModifyVolume              1c024580 f   SERVICES.OBJ
 0001:00022f80       _Tone                      1c023f80 f   PLAYTONE.OBJ
 0001:00021240       _DetermineDeviceID         1c022240 f   playaud.obj
 0001:000218e0       _PlayAudioProcedure        1c0228e0 f   playaud.obj
 0001:00021a30       _Process_MM_WOM_OPEN_Message 1c022a30 f   playaud.obj
 0001:00021aa0       _GetWaveOutDeviceCaps      1c022aa0 f   playaud.obj
 0001:00021af0       _StartAudioPlaying         1c022af0 f   playaud.obj
 0001:00021c00       _Process_MM_WOM_DONE_Message 1c022c00 f   playaud.obj
 0001:00021d60       _Process_MM_WOM_CLOSE_Message 1c022d60 f   playaud.obj
 0001:00021dc0       _ClosePlayDevice           1c022dc0 f   playaud.obj
 0001:00021e20       _WriteBufferToWaveDevice   1c022e20 f   playaud.obj
 0001:00021f40       _ProcessOpenWaveOutputDeviceMessage 1c022f40 f   playaud.obj
 0001:00021fb0       _OpenWaveOutputDevice      1c022fb0 f   playaud.obj
 0001:000220a0       _GetWaveFormatSize         1c0230a0 f   playaud.obj
 0001:000220c0       _ProcessResetMessage       1c0230c0 f   playaud.obj
 0001:00022160       _ClearSynchronizationMarkList 1c023160 f   playaud.obj
 0001:000221c0       _ResetAudioQueue           1c0231c0 f   playaud.obj
 0001:00022220       _ProcessPauseMessage       1c023220 f   playaud.obj
 0001:00022270       _ProcessResumeMessage      1c023270 f   playaud.obj
 0001:000222c0       _ProcessSetFormatMessage   1c0232c0 f   playaud.obj
 0001:00022400       _SetNewFormat              1c023400 f   playaud.obj
 0001:00022520       _ProcessGetFormatMessage   1c023520 f   playaud.obj
 0001:00022560       _ProcessGetVolumeMessage   1c023560 f   playaud.obj
 0001:00022580       _ProcessSetVolumeMessage   1c023580 f   playaud.obj
 0001:000225a0       _ProcessSynchronizationMarkMessage 1c0235a0 f   playaud.obj
 0001:00022640       _ProcessGetPositionMessage 1c023640 f   playaud.obj
 0001:00022680       _AudioPosition             1c023680 f   playaud.obj
 0001:000227a0       _ReportStatusToApplication 1c0237a0 f   playaud.obj
 0001:000227d0       _SendPlayAudioMessage      1c0237d0 f   playaud.obj
 0001:00022840       _CreateMessageQueue        1c023840 f   playaud.obj
 0001:00022920       _DestroyMessageQueue       1c023920 f   playaud.obj
 0001:00022970       _WriteMessageQueue         1c023970 f   playaud.obj
 0001:00022a90       _ReadMessageQueue          1c023a90 f   playaud.obj
 0001:0001e660       _init_timing               1c01f660 f   ph_timng.obj
 0001:0001c820       _speak_now                 1c01d820 f   ph_task.obj
 0001:0001c980       _readphone                 1c01d980 f   ph_task.obj
 0001:0001bb80       _ph_syllab                 1c01cb80 f   ph_syl.obj
 0001:0001bd50       _syl_find_affix            1c01cd50 f   ph_syl.obj
 0001:0001bdc0       _syl_clause_init           1c01cdc0 f   ph_syl.obj
 0001:0001be10       _speak_syllable            1c01ce10 f   ph_syl.obj
 0001:0001ab60       _get_stress_of_conson      1c01bb60 f   ph_sort.obj
 0001:0001ac80       _init_med_final            1c01bc80 f   ph_sort.obj
 0001:0001ad40       _find_syll_to_stress       1c01bd40 f   ph_sort.obj
 0001:0001adf0       _get_next_bound_type       1c01bdf0 f   ph_sort.obj
 0001:0001ae60       _move_stdangle             1c01be60 f   ph_sort.obj
 0001:0001b0f0       _interp_user_f0            1c01c0f0 f   ph_sort.obj
 0001:0001b230       _is_wboundary              1c01c230 f   ph_sort.obj
 0001:0001b250       _insertphone               1c01c250 f   ph_sort.obj
 0001:0001b310       _raise_last_stress         1c01c310 f   ph_sort.obj
 0001:0001b350       _zap_weaker_bound          1c01c350 f   ph_sort.obj
 0001:0001b3b0       _delete_symbol             1c01c3b0 f   ph_sort.obj
 0001:0001b440       _make_phone                1c01c440 f   ph_sort.obj
 0001:0001b4c0       _add_feature               1c01c4c0 f   ph_sort.obj
 0001:00018060       _gettar                    1c019060 f   ph_setar.obj
 0001:00018510       _forw_smooth_rules         1c019510 f   ph_setar.obj
 0001:00018b00       _back_smooth_rules         1c019b00 f   ph_setar.obj
 0001:00019140       _special_rules             1c01a140 f   ph_setar.obj
 0001:00019440       _setloc                    1c01a440 f   ph_setar.obj
 0001:00019770       _vv_coartic_across_c       1c01a770 f   ph_setar.obj
 0001:000197e0       _getbegtar                 1c01a7e0 f   ph_setar.obj
 0001:00019840       _special_coartic           1c01a840 f   ph_setar.obj
 0001:00019a60       _getendtar                 1c01aa60 f   ph_setar.obj
 0001:00019ad0       _make_dip                  1c01aad0 f   ph_setar.obj
 0001:00019d40       _shrdur                    1c01ad40 f   ph_setar.obj
 0001:00019e00       _init_variables            1c01ae00 f   ph_setar.obj
 0001:00017880       _make_f0_command           1c018880 f   ph_inton.obj
 0001:00016160       _set_user_target           1c017160 f   ph_drwt0.obj
 0001:00016290       _set_tglst                 1c017290 f   ph_drwt0.obj
 0001:000163c0       _filter_commands           1c0173c0 f   ph_drwt0.obj
 0001:00016480       _filter_seg_commands       1c017480 f   ph_drwt0.obj
 0001:00016560       _linear_interp             1c017560 f   ph_drwt0.obj
 0001:00013df0       _init_clause               1c014df0 f   ph_claus.obj
 0001:00013ec0       _init_pars                 1c014ec0 f   ph_claus.obj
 0001:00013ef0       _exit_if_done              1c014ef0 f   ph_claus.obj
 0001:00013f50       _send_pars                 1c014f50 f   ph_claus.obj
 0001:00013a40       _remaining_stresses_til    1c014a40 f   ph_aloph.obj
 0001:00013ac0       _promote_last_2            1c014ac0 f   ph_aloph.obj
 0001:00013b70       _make_out_phonol           1c014b70 f   ph_aloph.obj
 0001:00005120       _wave_file_open            1c006120 f   cmd_wav.obj
 0001:00003080       _cm_phon_lookup_asc        1c004080 f   cm_phon.obj
 0001:000030e0       _cm_phon_lookup_arpa       1c0040e0 f   cm_phon.obj
 0001:000031c0       _cm_phon_param_check       1c0041c0 f   cm_phon.obj
 0001:00003310       _cm_phon_flush             1c004310 f   cm_phon.obj
 0001:00002a30       _cm_pars_icommand          1c003a30 f   cm_pars.obj
 0001:00002e70       _OutputCharacter           1c003e70 f   cm_pars.obj
 0001:00000cc0       _OpenDbgLogFile            1c001cc0 f   cm_copt.obj
 0001:00000cf0       _CloseDbgLogFile           1c001cf0 f   cm_copt.obj
