	TITLE	D:\work\product\dapi\src\vtm\PLAYTONE.C
	.386P
include listing.inc
if @Version gt 510
.model FLAT
else
_TEXT	SEGMENT PARA USE32 PUBLIC 'CODE'
_TEXT	ENDS
_DATA	SEGMENT DWORD USE32 PUBLIC 'DATA'
_DATA	ENDS
CONST	SEGMENT DWORD USE32 PUBLIC 'CONST'
CONST	ENDS
_BSS	SEGMENT DWORD USE32 PUBLIC 'BSS'
_BSS	ENDS
$$SYMBOLS	SEGMENT BYTE USE32 'DEBSYM'
$$SYMBOLS	ENDS
$$TYPES	SEGMENT BYTE USE32 'DEBTYP'
$$TYPES	ENDS
_TLS	SEGMENT DWORD USE32 PUBLIC 'TLS'
_TLS	ENDS
FLAT	GROUP _DATA, CONST, _BSS
	ASSUME	CS: FLAT, DS: FLAT, SS: FLAT
endif
PUBLIC	_SineTable
_DATA	SEGMENT
_SineTable DQ	00000000000000000r		; 0
	DQ	03f79220ff540895dr		; 0.006136
	DQ	03f89220ff540895dr		; 0.012272
	DQ	03f92d948dc11e42er		; 0.018407
	DQ	03f992146a1a500d6r		; 0.024541
	DQ	03f9f694467381d7er		; 0.030675
	DQ	03fa2d85dfa871a3br		; 0.036807
	DQ	03fa5fbf83382e44br		; 0.042938
	DQ	03fa91f70de8f6cf0r		; 0.049068
	DQ	03fac4284dfce3151r		; 0.055195
	DQ	03faf6577531db446r		; 0.061321
	DQ	03fb144028e4fb97cr		; 0.067444
	DQ	03fb2d527e5215769r		; 0.073565
	DQ	03fb4660a2014727er		; 0.079682
	DQ	03fb5f6cacd184c27r		; 0.085797
	DQ	03fb78759253543afr		; 0.091909
	DQ	03fb917a46173b85fr		; 0.098017
	DQ	03fbaa7bd48cb4aedr		; 0.104122
	DQ	03fbc37824d4cb9edr		; 0.110222
	DQ	03fbdc714fce746ccr		; 0.116319
	DQ	03fbf5653c9abb01dr		; 0.122411
	DQ	03fc0729f59ccfaf0r		; 0.128498
	DQ	03fc139f340d4dc66r		; 0.134581
	DQ	03fc20114d2f5dbbar		; 0.140658
	DQ	03fc2c80c73abc947r		; 0.14673
	DQ	03fc38eda22f6a50dr		; 0.152797
	DQ	03fc455757d5a9eb2r		; 0.158858
	DQ	03fc51bde82d7b635r		; 0.164913
	DQ	03fc5e215336deb96r		; 0.170962
	DQ	03fc6a8112ba16e7ar		; 0.177004
	DQ	03fc76ddaceee0f3dr		; 0.18304
	DQ	03fc83369b9d7fd82r		; 0.189069
	DQ	03fc8f8b588e368f1r		; 0.19509
	DQ	03fc9bdcf0307f23dr		; 0.201105
	DQ	03fca829cfdd22856r		; 0.207111
	DQ	03fcb47304039abf3r		; 0.21311
	DQ	03fcc0b8066c2acb8r		; 0.219101
	DQ	03fcccf8d716d2aa6r		; 0.225084
	DQ	03fcd934efcbd5561r		; 0.231058
	DQ	03fce56cd6c2efd44r		; 0.237024
	DQ	03fcf19f7f8ca8199r		; 0.24298
	DQ	03fcfdcdf69878317r		; 0.248928
	DQ	03fd04fb97bb73083r		; 0.254866
	DQ	03fd0b0d9513f8db5r		; 0.260794
	DQ	03fd111d3671ac14cr		; 0.266713
	DQ	03fd1729f59ccfaf0r		; 0.272621
	DQ	03fd1d3458cd20afar		; 0.27852
	DQ	03fd233bd9cae2110r		; 0.284408
	DQ	03fd2940789613d32r		; 0.290285
	DQ	03fd2f42352eb5f5fr		; 0.296151
	DQ	03fd35410f94c8798r		; 0.302006
	DQ	03fd3b3d07c84b5ddr		; 0.30785
	DQ	03fd4135daad60200r		; 0.313682
	DQ	03fd472b884406c01r		; 0.319502
	DQ	03fd4d1e108c3f3e0r		; 0.32531
	DQ	03fd530d73860999er		; 0.331106
	DQ	03fd58f9b13165d3ar		; 0.33689
	DQ	03fd5ee2867275686r		; 0.342661
	DQ	03fd64c7f34938583r		; 0.348419
	DQ	03fd6aa9f7b5aea31r		; 0.354164
	DQ	03fd7088509bf9c63r		; 0.359895
	DQ	03fd76634117f8445r		; 0.365613
	DQ	03fd7c3a860dcb9aar		; 0.371317
	DQ	03fd820e1f7d73c92r		; 0.377007
	DQ	03fd87de0d66f0cfer		; 0.382683
	DQ	03fd8daa4fca42aedr		; 0.388345
	DQ	03fd9372a38b8ae32r		; 0.393992
	DQ	03fd993708aac96ccr		; 0.399624
	DQ	03fd9ef77f27fe4bdr		; 0.405241
	DQ	03fda4b4070329803r		; 0.410843
	DQ	03fdaa6ca03c4b09fr		; 0.41643
	DQ	03fdb020c49ba5e35r		; 0.422
	DQ	03fdb5d0fa58f7122r		; 0.427555
	DQ	03fdbb7cfe5860136r		; 0.433094
	DQ	03fdc1248d7e02646r		; 0.438616
	DQ	03fdc6c7eae5bc87er		; 0.444122
	DQ	03fdcc66d373affb0r		; 0.449611
	DQ	03fdd2018a43bb40br		; 0.455084
	DQ	03fdd797891e21533r		; 0.460539
	DQ	03fddd28d002e2329r		; 0.465976
	DQ	03fde2b5e529bae47r		; 0.471397
	DQ	03fde83dff3f0fe04r		; 0.476799
	DQ	03fdedc1a47a9e2bdr		; 0.482184
	DQ	03fdf3404ea4a8c15r		; 0.48755
	DQ	03fdf8ba40d90e23br		; 0.492898
	DQ	03fdfe2f7b17ce52er		; 0.498228
	DQ	03fe01cfbb949624ar		; 0.503538
	DQ	03fe04855da272863r		; 0.50883
	DQ	03fe073882278d0ccr		; 0.514103
	DQ	03fe09e90795f676fr		; 0.519356
	DQ	03fe0c970f7b9e061r		; 0.52459
	DQ	03fe0f42784a9478dr		; 0.529804
	DQ	03fe11eb4202d9cf1r		; 0.534998
	DQ	03fe14914b167ec78r		; 0.540171
	DQ	03fe1734d6a161e4fr		; 0.545325
	DQ	03fe19d5a187a4a49r		; 0.550458
	DQ	03fe1c73abc947065r		; 0.55557
	DQ	03fe1f0f16f4384bar		; 0.560662
	DQ	03fe21a79fec99f1br		; 0.565732
	DQ	03fe243d68405b39er		; 0.570781
	DQ	03fe26d04e618ce2dr		; 0.575808
	DQ	03fe296073de1e2dfr		; 0.580814
	DQ	03fe2bedb7281fd9cr		; 0.585798
	DQ	03fe2e78183f91e64r		; 0.59076
	DQ	03fe30ff759685122r		; 0.595699
	DQ	03fe3383f0bae89ecr		; 0.600616
	DQ	03fe360589acbc8c1r		; 0.605511
	DQ	03fe38841ede1198br		; 0.610383
	DQ	03fe3affb04ee7c4ar		; 0.615232
	DQ	03fe3d781c714fce7r		; 0.620057
	DQ	03fe3fed84d338f7ar		; 0.624859
	DQ	03fe425fe974a3401r		; 0.629638
	DQ	03fe44cf28c79f666r		; 0.634393
	DQ	03fe473b42cc2d6aar		; 0.639124
	DQ	03fe49a459103c8e2r		; 0.643832
	DQ	03fe4c0a06e9ff0ccr		; 0.648514
	DQ	03fe4e6cb10342aaar		; 0.653173
	DQ	03fe50cc144028e50r		; 0.657807
	DQ	03fe532830a0b1bbdr		; 0.662416
	DQ	03fe55810624dd2f2r		; 0.667
	DQ	03fe57d694ccab3eer		; 0.671559
	DQ	03fe5a28dc981beb2r		; 0.676093
	DQ	03fe5c77bbf93ff26r		; 0.680601
	DQ	03fe5ec3547e06962r		; 0.685084
	DQ	03fe610b84988094er		; 0.689541
	DQ	03fe63502ababead5r		; 0.693971
	DQ	03fe65918a009f623r		; 0.698376
	DQ	03fe67cf80dc33722r		; 0.702755
	DQ	03fe6a09edbf8b9bbr		; 0.707107
	DQ	03fe6c40d0aaa7dedr		; 0.711432
	DQ	03fe6e744b2b777d1r		; 0.715731
	DQ	03fe70a43bb40b34er		; 0.720003
	DQ	03fe72d080b673c4fr		; 0.724247
	DQ	03fe74f93bc0a06ear		; 0.728464
	DQ	03fe771e6cd29131fr		; 0.732654
	DQ	03fe794013ec460eer		; 0.736817
	DQ	03fe7b5dedf1e0829r		; 0.740951
	DQ	03fe7d783dff3f0fer		; 0.745058
	DQ	03fe7f8ec0f883340r		; 0.749136
	DQ	03fe81a1b9f98b71cr		; 0.753187
	DQ	03fe83b0e5e679464r		; 0.757209
	DQ	03fe85bc44bf4cb19r		; 0.761202
	DQ	03fe87c3f811f4f51r		; 0.765167
	DQ	03fe89c7de5082cf5r		; 0.769103
	DQ	03fe8bc7f77af6406r		; 0.77301
	DQ	03fe8dc443914f484r		; 0.776888
	DQ	03fe8fbcc2938de6er		; 0.780737
	DQ	03fe91b17481b21c4r		; 0.784557
	DQ	03fe93a2163fdd65ar		; 0.788346
	DQ	03fe958f0c77dd873r		; 0.792107
	DQ	03fe9777f27fe4bcbr		; 0.795837
	DQ	03fe995ce9e5e2479r		; 0.799537
	DQ	03fe9b3e1437c5693r		; 0.803208
	DQ	03fe9d1b2e59af9ecr		; 0.806848
	DQ	03fe9ef4384ba0e84r		; 0.810457
	DQ	03fea0c9539b88872r		; 0.814036
	DQ	03fea29a8049667b6r		; 0.817585
	DQ	03fea4679cc74b839r		; 0.821103
	DQ	03fea6308787485e4r		; 0.824589
	DQ	03fea7f583a53b8e5r		; 0.828045
	DQ	03fea9b66f9335d25r		; 0.83147
	DQ	03feab7329c347e8dr		; 0.834863
	DQ	03fead2bd3c361134r		; 0.838225
	DQ	03feaee04c0592104r		; 0.841555
	DQ	03feb090b417ca212r		; 0.844854
	DQ	03feb23cc8de2ac32r		; 0.84812
	DQ	03feb3e4cd7492791r		; 0.851355
	DQ	03feb588a04d12019r		; 0.854558
	DQ	03feb7284167a95c8r		; 0.857729
	DQ	03feb8c38f366948ar		; 0.860867
	DQ	03feba5aab4741073r		; 0.863973
	DQ	03febbed740c4156er		; 0.867046
	DQ	03febd7c0b1359792r		; 0.870087
	DQ	03febf064ece9a2c6r		; 0.873095
	DQ	03fec08c3f3e0370dr		; 0.87607
	DQ	03fec20ddc6195465r		; 0.879012
	DQ	03fec38b26394facer		; 0.881921
	DQ	03fec5041cc532a49r		; 0.884797
	DQ	03fec678c0053e2d6r		; 0.88764
	DQ	03fec7e8ee6b8305er		; 0.890449
	DQ	03fec954a7f8012e0r		; 0.893224
	DQ	03fecabc0e38a7e74r		; 0.895966
	DQ	03fecc1eff9f87f02r		; 0.898674
	DQ	03fecd7d9dba908a2r		; 0.901349
	DQ	03feced7a56de3327r		; 0.903989
	DQ	03fed02d59d55e6bcr		; 0.906596
	DQ	03fed17e77d523b36r		; 0.909168
	DQ	03fed2cb20fb224abr		; 0.911706
	DQ	03fed41355475a31ar		; 0.91421
	DQ	03fed556f32bdc26er		; 0.916679
	DQ	03fed6961c36976bcr		; 0.919114
	DQ	03fed7d0aed99cbefr		; 0.921514
	DQ	03fed906cca2db61cr		; 0.92388
	DQ	03feda38327674d16r		; 0.92621
	DQ	03fedb6523704790cr		; 0.928506
	DQ	03fedc8d7e02645e5r		; 0.930767
	DQ	03feddb1422ccb3a2r		; 0.932993
	DQ	03feded06fef7c244r		; 0.935184
	DQ	03fedfeae5bc87db3r		; 0.937339
	DQ	03fee100c521dda06r		; 0.939459
	DQ	03fee2120e1f7d73dr		; 0.941544
	DQ	03fee31e9f2778141r		; 0.943593
	DQ	03fee42699c7bcc29r		; 0.945607
	DQ	03fee529fe004b7f6r		; 0.947586
	DQ	03fee62888b545c79r		; 0.949528
	DQ	03fee7227d028a1e0r		; 0.951435
	DQ	03fee817b95a29414r		; 0.953306
	DQ	03fee9083dbc23316r		; 0.955141
	DQ	03fee9f40a2877ee5r		; 0.95694
	DQ	03feeadb1e9f27781r		; 0.958703
	DQ	03feebbd9cae21102r		; 0.960431
	DQ	03feec9b1fab96f22r		; 0.962121
	DQ	03feed740c4156e26r		; 0.963776
	DQ	03feee481f53825e1r		; 0.965394
	DQ	03feef177a7008a69r		; 0.966976
	DQ	03feefe21d96e9bbfr		; 0.968522
	DQ	03fef0a7e73a365cbr		; 0.970031
	DQ	03fef168f8e7ddca5r		; 0.971504
	DQ	03fef2253111f0c35r		; 0.97294
	DQ	03fef2dc8fb86f47br		; 0.974339
	DQ	03fef38f36694898fr		; 0.975702
	DQ	03fef43d03968d75ar		; 0.977028
	DQ	03fef4e5f7403dddbr		; 0.978317
	DQ	03fef58a32f44912ar		; 0.97957
	DQ	03fef6297396d0918r		; 0.980785
	DQ	03fef6c3fc43b2dd3r		; 0.981964
	DQ	03fef75989df1172fr		; 0.983105
	DQ	03fef7ea5f84cad58r		; 0.98421
	DQ	03fef8765ba6efc37r		; 0.985278
	DQ	03fef8fd5cb790fb6r		; 0.986308
	DQ	03fef97f84449dbecr		; 0.987301
	DQ	03fef9fcf3dc054efr		; 0.988258
	DQ	03fefa756861e9292r		; 0.989177
	DQ	03fefae8e1d6494d5r		; 0.990058
	DQ	03fefb57a355043e5r		; 0.990903
	DQ	03fefbc169c23b795r		; 0.99171
	DQ	03fefc2656abde3fcr		; 0.99248
	DQ	03fefc864883fd502r		; 0.993212
	DQ	03fefce160d887ebfr		; 0.993907
	DQ	03fefd379fa97e133r		; 0.994565
	DQ	03fefd88e368f0846r		; 0.995185
	DQ	03fefdd52c16df3f9r		; 0.995767
	DQ	03fefe1cbccf28c7ar		; 0.996313
	DQ	03fefe5f30e7ff584r		; 0.99682
	DQ	03fefe9ccb7d41744r		; 0.99729
	DQ	03fefed58c8eef1bbr		; 0.997723
	DQ	03feff09528f190d1r		; 0.998118
	DQ	03feff383f0bae89fr		; 0.998476
	DQ	03feff620ee8d10f5r		; 0.998795
	DQ	03feff8726d04e619r		; 0.999078
	DQ	03feffa7221858bc6r		; 0.999322
	DQ	03feffc243dccea29r		; 0.999529
	DQ	03feffd88c1db0143r		; 0.999699
	DQ	03feffe9d94d0dcfdr		; 0.999831
	DQ	03fefff62b6ae7d56r		; 0.999925
	DQ	03fefffd82773e250r		; 0.999981
	DQ	03ff0000000000000r		; 1
	DQ	03fefffd82773e250r		; 0.999981
	DQ	03fefff62b6ae7d56r		; 0.999925
	DQ	03feffe9d94d0dcfdr		; 0.999831
	DQ	03feffd88c1db0143r		; 0.999699
	DQ	03feffc243dccea29r		; 0.999529
	DQ	03feffa7221858bc6r		; 0.999322
	DQ	03feff8726d04e619r		; 0.999078
	DQ	03feff620ee8d10f5r		; 0.998795
	DQ	03feff383f0bae89fr		; 0.998476
	DQ	03feff09528f190d1r		; 0.998118
	DQ	03fefed58c8eef1bbr		; 0.997723
	DQ	03fefe9ccb7d41744r		; 0.99729
	DQ	03fefe5f30e7ff584r		; 0.99682
	DQ	03fefe1cbccf28c7ar		; 0.996313
	DQ	03fefdd52c16df3f9r		; 0.995767
	DQ	03fefd88e368f0846r		; 0.995185
	DQ	03fefd379fa97e133r		; 0.994565
	DQ	03fefce160d887ebfr		; 0.993907
	DQ	03fefc864883fd502r		; 0.993212
	DQ	03fefc2656abde3fcr		; 0.99248
	DQ	03fefbc169c23b795r		; 0.99171
	DQ	03fefb57a355043e5r		; 0.990903
	DQ	03fefae8e1d6494d5r		; 0.990058
	DQ	03fefa756861e9292r		; 0.989177
	DQ	03fef9fcf3dc054efr		; 0.988258
	DQ	03fef97f84449dbecr		; 0.987301
	DQ	03fef8fd5cb790fb6r		; 0.986308
	DQ	03fef8765ba6efc37r		; 0.985278
	DQ	03fef7ea5f84cad58r		; 0.98421
	DQ	03fef75989df1172fr		; 0.983105
	DQ	03fef6c3fc43b2dd3r		; 0.981964
	DQ	03fef6297396d0918r		; 0.980785
	DQ	03fef58a32f44912ar		; 0.97957
	DQ	03fef4e5f7403dddbr		; 0.978317
	DQ	03fef43d03968d75ar		; 0.977028
	DQ	03fef38f36694898fr		; 0.975702
	DQ	03fef2dc8fb86f47br		; 0.974339
	DQ	03fef2253111f0c35r		; 0.97294
	DQ	03fef168f8e7ddca5r		; 0.971504
	DQ	03fef0a7e73a365cbr		; 0.970031
	DQ	03feefe21d96e9bbfr		; 0.968522
	DQ	03feef177a7008a69r		; 0.966976
	DQ	03feee481f53825e1r		; 0.965394
	DQ	03feed740c4156e26r		; 0.963776
	DQ	03feec9b1fab96f22r		; 0.962121
	DQ	03feebbd9cae21102r		; 0.960431
	DQ	03feeadb1e9f27781r		; 0.958703
	DQ	03fee9f40a2877ee5r		; 0.95694
	DQ	03fee9083dbc23316r		; 0.955141
	DQ	03fee817b95a29414r		; 0.953306
	DQ	03fee7227d028a1e0r		; 0.951435
	DQ	03fee62888b545c79r		; 0.949528
	DQ	03fee529fe004b7f6r		; 0.947586
	DQ	03fee42699c7bcc29r		; 0.945607
	DQ	03fee31e9f2778141r		; 0.943593
	DQ	03fee2120e1f7d73dr		; 0.941544
	DQ	03fee100c521dda06r		; 0.939459
	DQ	03fedfeae5bc87db3r		; 0.937339
	DQ	03feded06fef7c244r		; 0.935184
	DQ	03feddb1422ccb3a2r		; 0.932993
	DQ	03fedc8d7e02645e5r		; 0.930767
	DQ	03fedb6523704790cr		; 0.928506
	DQ	03feda38327674d16r		; 0.92621
	DQ	03fed906cca2db61cr		; 0.92388
	DQ	03fed7d0aed99cbefr		; 0.921514
	DQ	03fed6961c36976bcr		; 0.919114
	DQ	03fed556f32bdc26er		; 0.916679
	DQ	03fed41355475a31ar		; 0.91421
	DQ	03fed2cb20fb224abr		; 0.911706
	DQ	03fed17e77d523b36r		; 0.909168
	DQ	03fed02d59d55e6bcr		; 0.906596
	DQ	03feced7a56de3327r		; 0.903989
	DQ	03fecd7d9dba908a2r		; 0.901349
	DQ	03fecc1eff9f87f02r		; 0.898674
	DQ	03fecabc0e38a7e74r		; 0.895966
	DQ	03fec954a7f8012e0r		; 0.893224
	DQ	03fec7e8ee6b8305er		; 0.890449
	DQ	03fec678c0053e2d6r		; 0.88764
	DQ	03fec5041cc532a49r		; 0.884797
	DQ	03fec38b26394facer		; 0.881921
	DQ	03fec20ddc6195465r		; 0.879012
	DQ	03fec08c3f3e0370dr		; 0.87607
	DQ	03febf064ece9a2c6r		; 0.873095
	DQ	03febd7c0b1359792r		; 0.870087
	DQ	03febbed740c4156er		; 0.867046
	DQ	03feba5aab4741073r		; 0.863973
	DQ	03feb8c38f366948ar		; 0.860867
	DQ	03feb7284167a95c8r		; 0.857729
	DQ	03feb588a04d12019r		; 0.854558
	DQ	03feb3e4cd7492791r		; 0.851355
	DQ	03feb23cc8de2ac32r		; 0.84812
	DQ	03feb090b417ca212r		; 0.844854
	DQ	03feaee04c0592104r		; 0.841555
	DQ	03fead2bd3c361134r		; 0.838225
	DQ	03feab7329c347e8dr		; 0.834863
	DQ	03fea9b66f9335d25r		; 0.83147
	DQ	03fea7f583a53b8e5r		; 0.828045
	DQ	03fea6308787485e4r		; 0.824589
	DQ	03fea4679cc74b839r		; 0.821103
	DQ	03fea29a8049667b6r		; 0.817585
	DQ	03fea0c9539b88872r		; 0.814036
	DQ	03fe9ef4384ba0e84r		; 0.810457
	DQ	03fe9d1b2e59af9ecr		; 0.806848
	DQ	03fe9b3e1437c5693r		; 0.803208
	DQ	03fe995ce9e5e2479r		; 0.799537
	DQ	03fe9777f27fe4bcbr		; 0.795837
	DQ	03fe958f0c77dd873r		; 0.792107
	DQ	03fe93a2163fdd65ar		; 0.788346
	DQ	03fe91b17481b21c4r		; 0.784557
	DQ	03fe8fbcc2938de6er		; 0.780737
	DQ	03fe8dc443914f484r		; 0.776888
	DQ	03fe8bc7f77af6406r		; 0.77301
	DQ	03fe89c7de5082cf5r		; 0.769103
	DQ	03fe87c3f811f4f51r		; 0.765167
	DQ	03fe85bc44bf4cb19r		; 0.761202
	DQ	03fe83b0e5e679464r		; 0.757209
	DQ	03fe81a1b9f98b71cr		; 0.753187
	DQ	03fe7f8ec0f883340r		; 0.749136
	DQ	03fe7d783dff3f0fer		; 0.745058
	DQ	03fe7b5dedf1e0829r		; 0.740951
	DQ	03fe794013ec460eer		; 0.736817
	DQ	03fe771e6cd29131fr		; 0.732654
	DQ	03fe74f93bc0a06ear		; 0.728464
	DQ	03fe72d080b673c4fr		; 0.724247
	DQ	03fe70a43bb40b34er		; 0.720003
	DQ	03fe6e744b2b777d1r		; 0.715731
	DQ	03fe6c40d0aaa7dedr		; 0.711432
	DQ	03fe6a09edbf8b9bbr		; 0.707107
	DQ	03fe67cf80dc33722r		; 0.702755
	DQ	03fe65918a009f623r		; 0.698376
	DQ	03fe63502ababead5r		; 0.693971
	DQ	03fe610b84988094er		; 0.689541
	DQ	03fe5ec3547e06962r		; 0.685084
	DQ	03fe5c77bbf93ff26r		; 0.680601
	DQ	03fe5a28dc981beb2r		; 0.676093
	DQ	03fe57d694ccab3eer		; 0.671559
	DQ	03fe55810624dd2f2r		; 0.667
	DQ	03fe532830a0b1bbdr		; 0.662416
	DQ	03fe50cc144028e50r		; 0.657807
	DQ	03fe4e6cb10342aaar		; 0.653173
	DQ	03fe4c0a06e9ff0ccr		; 0.648514
	DQ	03fe49a459103c8e2r		; 0.643832
	DQ	03fe473b42cc2d6aar		; 0.639124
	DQ	03fe44cf28c79f666r		; 0.634393
	DQ	03fe425fe974a3401r		; 0.629638
	DQ	03fe3fed84d338f7ar		; 0.624859
	DQ	03fe3d781c714fce7r		; 0.620057
	DQ	03fe3affb04ee7c4ar		; 0.615232
	DQ	03fe38841ede1198br		; 0.610383
	DQ	03fe360589acbc8c1r		; 0.605511
	DQ	03fe3383f0bae89ecr		; 0.600616
	DQ	03fe30ff759685122r		; 0.595699
	DQ	03fe2e78183f91e64r		; 0.59076
	DQ	03fe2bedb7281fd9cr		; 0.585798
	DQ	03fe296073de1e2dfr		; 0.580814
	DQ	03fe26d04e618ce2dr		; 0.575808
	DQ	03fe243d68405b39er		; 0.570781
	DQ	03fe21a79fec99f1br		; 0.565732
	DQ	03fe1f0f16f4384bar		; 0.560662
	DQ	03fe1c73abc947065r		; 0.55557
	DQ	03fe19d5a187a4a49r		; 0.550458
	DQ	03fe1734d6a161e4fr		; 0.545325
	DQ	03fe14914b167ec78r		; 0.540171
	DQ	03fe11eb4202d9cf1r		; 0.534998
	DQ	03fe0f42784a9478dr		; 0.529804
	DQ	03fe0c970f7b9e061r		; 0.52459
	DQ	03fe09e90795f676fr		; 0.519356
	DQ	03fe073882278d0ccr		; 0.514103
	DQ	03fe04855da272863r		; 0.50883
	DQ	03fe01cfbb949624ar		; 0.503538
	DQ	03fdfe2f7b17ce52er		; 0.498228
	DQ	03fdf8ba40d90e23br		; 0.492898
	DQ	03fdf3404ea4a8c15r		; 0.48755
	DQ	03fdedc1a47a9e2bdr		; 0.482184
	DQ	03fde83dff3f0fe04r		; 0.476799
	DQ	03fde2b5e529bae47r		; 0.471397
	DQ	03fddd28d002e2329r		; 0.465976
	DQ	03fdd797891e21533r		; 0.460539
	DQ	03fdd2018a43bb40br		; 0.455084
	DQ	03fdcc66d373affb0r		; 0.449611
	DQ	03fdc6c7eae5bc87er		; 0.444122
	DQ	03fdc1248d7e02646r		; 0.438616
	DQ	03fdbb7cfe5860136r		; 0.433094
	DQ	03fdb5d0fa58f7122r		; 0.427555
	DQ	03fdb020c49ba5e35r		; 0.422
	DQ	03fdaa6ca03c4b09fr		; 0.41643
	DQ	03fda4b4070329803r		; 0.410843
	DQ	03fd9ef77f27fe4bdr		; 0.405241
	DQ	03fd993708aac96ccr		; 0.399624
	DQ	03fd9372a38b8ae32r		; 0.393992
	DQ	03fd8daa4fca42aedr		; 0.388345
	DQ	03fd87de0d66f0cfer		; 0.382683
	DQ	03fd820e1f7d73c92r		; 0.377007
	DQ	03fd7c3a860dcb9aar		; 0.371317
	DQ	03fd76634117f8445r		; 0.365613
	DQ	03fd7088509bf9c63r		; 0.359895
	DQ	03fd6aa9f7b5aea31r		; 0.354164
	DQ	03fd64c7f34938583r		; 0.348419
	DQ	03fd5ee2867275686r		; 0.342661
	DQ	03fd58f9b13165d3ar		; 0.33689
	DQ	03fd530d73860999er		; 0.331106
	DQ	03fd4d1e108c3f3e0r		; 0.32531
	DQ	03fd472b884406c01r		; 0.319502
	DQ	03fd4135daad60200r		; 0.313682
	DQ	03fd3b3d07c84b5ddr		; 0.30785
	DQ	03fd35410f94c8798r		; 0.302006
	DQ	03fd2f42352eb5f5fr		; 0.296151
	DQ	03fd2940789613d32r		; 0.290285
	DQ	03fd233bd9cae2110r		; 0.284408
	DQ	03fd1d3458cd20afar		; 0.27852
	DQ	03fd1729f59ccfaf0r		; 0.272621
	DQ	03fd111d3671ac14cr		; 0.266713
	DQ	03fd0b0d9513f8db5r		; 0.260794
	DQ	03fd04fb97bb73083r		; 0.254866
	DQ	03fcfdcdf69878317r		; 0.248928
	DQ	03fcf19f7f8ca8199r		; 0.24298
	DQ	03fce56cd6c2efd44r		; 0.237024
	DQ	03fcd934efcbd5561r		; 0.231058
	DQ	03fcccf8d716d2aa6r		; 0.225084
	DQ	03fcc0b8066c2acb8r		; 0.219101
	DQ	03fcb47304039abf3r		; 0.21311
	DQ	03fca829cfdd22856r		; 0.207111
	DQ	03fc9bdcf0307f23dr		; 0.201105
	DQ	03fc8f8b588e368f1r		; 0.19509
	DQ	03fc83369b9d7fd82r		; 0.189069
	DQ	03fc76ddaceee0f3dr		; 0.18304
	DQ	03fc6a8112ba16e7ar		; 0.177004
	DQ	03fc5e215336deb96r		; 0.170962
	DQ	03fc51bde82d7b635r		; 0.164913
	DQ	03fc455757d5a9eb2r		; 0.158858
	DQ	03fc38eda22f6a50dr		; 0.152797
	DQ	03fc2c80c73abc947r		; 0.14673
	DQ	03fc20114d2f5dbbar		; 0.140658
	DQ	03fc139f340d4dc66r		; 0.134581
	DQ	03fc0729f59ccfaf0r		; 0.128498
	DQ	03fbf5653c9abb01dr		; 0.122411
	DQ	03fbdc714fce746ccr		; 0.116319
	DQ	03fbc37824d4cb9edr		; 0.110222
	DQ	03fbaa7bd48cb4aedr		; 0.104122
	DQ	03fb917a46173b85fr		; 0.098017
	DQ	03fb78759253543afr		; 0.091909
	DQ	03fb5f6cacd184c27r		; 0.085797
	DQ	03fb4660a2014727er		; 0.079682
	DQ	03fb2d527e5215769r		; 0.073565
	DQ	03fb144028e4fb97cr		; 0.067444
	DQ	03faf6577531db446r		; 0.061321
	DQ	03fac4284dfce3151r		; 0.055195
	DQ	03fa91f70de8f6cf0r		; 0.049068
	DQ	03fa5fbf83382e44br		; 0.042938
	DQ	03fa2d85dfa871a3br		; 0.036807
	DQ	03f9f694467381d7er		; 0.030675
	DQ	03f992146a1a500d6r		; 0.024541
	DQ	03f92d948dc11e42er		; 0.018407
	DQ	03f89220ff540895dr		; 0.012272
	DQ	03f79220ff540895dr		; 0.006136
	DQ	00000000000000000r		; 0
	DQ	0bf79220ff540895dr		; -0.006136
	DQ	0bf89220ff540895dr		; -0.012272
	DQ	0bf92d948dc11e42er		; -0.018407
	DQ	0bf992146a1a500d6r		; -0.024541
	DQ	0bf9f694467381d7er		; -0.030675
	DQ	0bfa2d85dfa871a3br		; -0.036807
	DQ	0bfa5fbf83382e44br		; -0.042938
	DQ	0bfa91f70de8f6cf0r		; -0.049068
	DQ	0bfac4284dfce3151r		; -0.055195
	DQ	0bfaf6577531db446r		; -0.061321
	DQ	0bfb144028e4fb97cr		; -0.067444
	DQ	0bfb2d527e5215769r		; -0.073565
	DQ	0bfb4660a2014727er		; -0.079682
	DQ	0bfb5f6cacd184c27r		; -0.085797
	DQ	0bfb78759253543afr		; -0.091909
	DQ	0bfb917a46173b85fr		; -0.098017
	DQ	0bfbaa7bd48cb4aedr		; -0.104122
	DQ	0bfbc37824d4cb9edr		; -0.110222
	DQ	0bfbdc714fce746ccr		; -0.116319
	DQ	0bfbf5653c9abb01dr		; -0.122411
	DQ	0bfc0729f59ccfaf0r		; -0.128498
	DQ	0bfc139f340d4dc66r		; -0.134581
	DQ	0bfc20114d2f5dbbar		; -0.140658
	DQ	0bfc2c80c73abc947r		; -0.14673
	DQ	0bfc38eda22f6a50dr		; -0.152797
	DQ	0bfc455757d5a9eb2r		; -0.158858
	DQ	0bfc51bde82d7b635r		; -0.164913
	DQ	0bfc5e215336deb96r		; -0.170962
	DQ	0bfc6a8112ba16e7ar		; -0.177004
	DQ	0bfc76ddaceee0f3dr		; -0.18304
	DQ	0bfc83369b9d7fd82r		; -0.189069
	DQ	0bfc8f8b588e368f1r		; -0.19509
	DQ	0bfc9bdcf0307f23dr		; -0.201105
	DQ	0bfca829cfdd22856r		; -0.207111
	DQ	0bfcb47304039abf3r		; -0.21311
	DQ	0bfcc0b8066c2acb8r		; -0.219101
	DQ	0bfcccf8d716d2aa6r		; -0.225084
	DQ	0bfcd934efcbd5561r		; -0.231058
	DQ	0bfce56cd6c2efd44r		; -0.237024
	DQ	0bfcf19f7f8ca8199r		; -0.24298
	DQ	0bfcfdcdf69878317r		; -0.248928
	DQ	0bfd04fb97bb73083r		; -0.254866
	DQ	0bfd0b0d9513f8db5r		; -0.260794
	DQ	0bfd111d3671ac14cr		; -0.266713
	DQ	0bfd1729f59ccfaf0r		; -0.272621
	DQ	0bfd1d3458cd20afar		; -0.27852
	DQ	0bfd233bd9cae2110r		; -0.284408
	DQ	0bfd2940789613d32r		; -0.290285
	DQ	0bfd2f42352eb5f5fr		; -0.296151
	DQ	0bfd35410f94c8798r		; -0.302006
	DQ	0bfd3b3d07c84b5ddr		; -0.30785
	DQ	0bfd4135daad60200r		; -0.313682
	DQ	0bfd472b884406c01r		; -0.319502
	DQ	0bfd4d1e108c3f3e0r		; -0.32531
	DQ	0bfd530d73860999er		; -0.331106
	DQ	0bfd58f9b13165d3ar		; -0.33689
	DQ	0bfd5ee2867275686r		; -0.342661
	DQ	0bfd64c7f34938583r		; -0.348419
	DQ	0bfd6aa9f7b5aea31r		; -0.354164
	DQ	0bfd7088509bf9c63r		; -0.359895
	DQ	0bfd76634117f8445r		; -0.365613
	DQ	0bfd7c3a860dcb9aar		; -0.371317
	DQ	0bfd820e1f7d73c92r		; -0.377007
	DQ	0bfd87de0d66f0cfer		; -0.382683
	DQ	0bfd8daa4fca42aedr		; -0.388345
	DQ	0bfd9372a38b8ae32r		; -0.393992
	DQ	0bfd993708aac96ccr		; -0.399624
	DQ	0bfd9ef77f27fe4bdr		; -0.405241
	DQ	0bfda4b4070329803r		; -0.410843
	DQ	0bfdaa6ca03c4b09fr		; -0.41643
	DQ	0bfdb020c49ba5e35r		; -0.422
	DQ	0bfdb5d0fa58f7122r		; -0.427555
	DQ	0bfdbb7cfe5860136r		; -0.433094
	DQ	0bfdc1248d7e02646r		; -0.438616
	DQ	0bfdc6c7eae5bc87er		; -0.444122
	DQ	0bfdcc66d373affb0r		; -0.449611
	DQ	0bfdd2018a43bb40br		; -0.455084
	DQ	0bfdd797891e21533r		; -0.460539
	DQ	0bfddd28d002e2329r		; -0.465976
	DQ	0bfde2b5e529bae47r		; -0.471397
	DQ	0bfde83dff3f0fe04r		; -0.476799
	DQ	0bfdedc1a47a9e2bdr		; -0.482184
	DQ	0bfdf3404ea4a8c15r		; -0.48755
	DQ	0bfdf8ba40d90e23br		; -0.492898
	DQ	0bfdfe2f7b17ce52er		; -0.498228
	DQ	0bfe01cfbb949624ar		; -0.503538
	DQ	0bfe04855da272863r		; -0.50883
	DQ	0bfe073882278d0ccr		; -0.514103
	DQ	0bfe09e90795f676fr		; -0.519356
	DQ	0bfe0c970f7b9e061r		; -0.52459
	DQ	0bfe0f42784a9478dr		; -0.529804
	DQ	0bfe11eb4202d9cf1r		; -0.534998
	DQ	0bfe14914b167ec78r		; -0.540171
	DQ	0bfe1734d6a161e4fr		; -0.545325
	DQ	0bfe19d5a187a4a49r		; -0.550458
	DQ	0bfe1c73abc947065r		; -0.55557
	DQ	0bfe1f0f16f4384bar		; -0.560662
	DQ	0bfe21a79fec99f1br		; -0.565732
	DQ	0bfe243d68405b39er		; -0.570781
	DQ	0bfe26d04e618ce2dr		; -0.575808
	DQ	0bfe296073de1e2dfr		; -0.580814
	DQ	0bfe2bedb7281fd9cr		; -0.585798
	DQ	0bfe2e78183f91e64r		; -0.59076
	DQ	0bfe30ff759685122r		; -0.595699
	DQ	0bfe3383f0bae89ecr		; -0.600616
	DQ	0bfe360589acbc8c1r		; -0.605511
	DQ	0bfe38841ede1198br		; -0.610383
	DQ	0bfe3affb04ee7c4ar		; -0.615232
	DQ	0bfe3d781c714fce7r		; -0.620057
	DQ	0bfe3fed84d338f7ar		; -0.624859
	DQ	0bfe425fe974a3401r		; -0.629638
	DQ	0bfe44cf28c79f666r		; -0.634393
	DQ	0bfe473b42cc2d6aar		; -0.639124
	DQ	0bfe49a459103c8e2r		; -0.643832
	DQ	0bfe4c0a06e9ff0ccr		; -0.648514
	DQ	0bfe4e6cb10342aaar		; -0.653173
	DQ	0bfe50cc144028e50r		; -0.657807
	DQ	0bfe532830a0b1bbdr		; -0.662416
	DQ	0bfe55810624dd2f2r		; -0.667
	DQ	0bfe57d694ccab3eer		; -0.671559
	DQ	0bfe5a28dc981beb2r		; -0.676093
	DQ	0bfe5c77bbf93ff26r		; -0.680601
	DQ	0bfe5ec3547e06962r		; -0.685084
	DQ	0bfe610b84988094er		; -0.689541
	DQ	0bfe63502ababead5r		; -0.693971
	DQ	0bfe65918a009f623r		; -0.698376
	DQ	0bfe67cf80dc33722r		; -0.702755
	DQ	0bfe6a09edbf8b9bbr		; -0.707107
	DQ	0bfe6c40d0aaa7dedr		; -0.711432
	DQ	0bfe6e744b2b777d1r		; -0.715731
	DQ	0bfe70a43bb40b34er		; -0.720003
	DQ	0bfe72d080b673c4fr		; -0.724247
	DQ	0bfe74f93bc0a06ear		; -0.728464
	DQ	0bfe771e6cd29131fr		; -0.732654
	DQ	0bfe794013ec460eer		; -0.736817
	DQ	0bfe7b5dedf1e0829r		; -0.740951
	DQ	0bfe7d783dff3f0fer		; -0.745058
	DQ	0bfe7f8ec0f883340r		; -0.749136
	DQ	0bfe81a1b9f98b71cr		; -0.753187
	DQ	0bfe83b0e5e679464r		; -0.757209
	DQ	0bfe85bc44bf4cb19r		; -0.761202
	DQ	0bfe87c3f811f4f51r		; -0.765167
	DQ	0bfe89c7de5082cf5r		; -0.769103
	DQ	0bfe8bc7f77af6406r		; -0.77301
	DQ	0bfe8dc443914f484r		; -0.776888
	DQ	0bfe8fbcc2938de6er		; -0.780737
	DQ	0bfe91b17481b21c4r		; -0.784557
	DQ	0bfe93a2163fdd65ar		; -0.788346
	DQ	0bfe958f0c77dd873r		; -0.792107
	DQ	0bfe9777f27fe4bcbr		; -0.795837
	DQ	0bfe995ce9e5e2479r		; -0.799537
	DQ	0bfe9b3e1437c5693r		; -0.803208
	DQ	0bfe9d1b2e59af9ecr		; -0.806848
	DQ	0bfe9ef4384ba0e84r		; -0.810457
	DQ	0bfea0c9539b88872r		; -0.814036
	DQ	0bfea29a8049667b6r		; -0.817585
	DQ	0bfea4679cc74b839r		; -0.821103
	DQ	0bfea6308787485e4r		; -0.824589
	DQ	0bfea7f583a53b8e5r		; -0.828045
	DQ	0bfea9b66f9335d25r		; -0.83147
	DQ	0bfeab7329c347e8dr		; -0.834863
	DQ	0bfead2bd3c361134r		; -0.838225
	DQ	0bfeaee04c0592104r		; -0.841555
	DQ	0bfeb090b417ca212r		; -0.844854
	DQ	0bfeb23cc8de2ac32r		; -0.84812
	DQ	0bfeb3e4cd7492791r		; -0.851355
	DQ	0bfeb588a04d12019r		; -0.854558
	DQ	0bfeb7284167a95c8r		; -0.857729
	DQ	0bfeb8c38f366948ar		; -0.860867
	DQ	0bfeba5aab4741073r		; -0.863973
	DQ	0bfebbed740c4156er		; -0.867046
	DQ	0bfebd7c0b1359792r		; -0.870087
	DQ	0bfebf064ece9a2c6r		; -0.873095
	DQ	0bfec08c3f3e0370dr		; -0.87607
	DQ	0bfec20ddc6195465r		; -0.879012
	DQ	0bfec38b26394facer		; -0.881921
	DQ	0bfec5041cc532a49r		; -0.884797
	DQ	0bfec678c0053e2d6r		; -0.88764
	DQ	0bfec7e8ee6b8305er		; -0.890449
	DQ	0bfec954a7f8012e0r		; -0.893224
	DQ	0bfecabc0e38a7e74r		; -0.895966
	DQ	0bfecc1eff9f87f02r		; -0.898674
	DQ	0bfecd7d9dba908a2r		; -0.901349
	DQ	0bfeced7a56de3327r		; -0.903989
	DQ	0bfed02d59d55e6bcr		; -0.906596
	DQ	0bfed17e77d523b36r		; -0.909168
	DQ	0bfed2cb20fb224abr		; -0.911706
	DQ	0bfed41355475a31ar		; -0.91421
	DQ	0bfed556f32bdc26er		; -0.916679
	DQ	0bfed6961c36976bcr		; -0.919114
	DQ	0bfed7d0aed99cbefr		; -0.921514
	DQ	0bfed906cca2db61cr		; -0.92388
	DQ	0bfeda38327674d16r		; -0.92621
	DQ	0bfedb6523704790cr		; -0.928506
	DQ	0bfedc8d7e02645e5r		; -0.930767
	DQ	0bfeddb1422ccb3a2r		; -0.932993
	DQ	0bfeded06fef7c244r		; -0.935184
	DQ	0bfedfeae5bc87db3r		; -0.937339
	DQ	0bfee100c521dda06r		; -0.939459
	DQ	0bfee2120e1f7d73dr		; -0.941544
	DQ	0bfee31e9f2778141r		; -0.943593
	DQ	0bfee42699c7bcc29r		; -0.945607
	DQ	0bfee529fe004b7f6r		; -0.947586
	DQ	0bfee62888b545c79r		; -0.949528
	DQ	0bfee7227d028a1e0r		; -0.951435
	DQ	0bfee817b95a29414r		; -0.953306
	DQ	0bfee9083dbc23316r		; -0.955141
	DQ	0bfee9f40a2877ee5r		; -0.95694
	DQ	0bfeeadb1e9f27781r		; -0.958703
	DQ	0bfeebbd9cae21102r		; -0.960431
	DQ	0bfeec9b1fab96f22r		; -0.962121
	DQ	0bfeed740c4156e26r		; -0.963776
	DQ	0bfeee481f53825e1r		; -0.965394
	DQ	0bfeef177a7008a69r		; -0.966976
	DQ	0bfeefe21d96e9bbfr		; -0.968522
	DQ	0bfef0a7e73a365cbr		; -0.970031
	DQ	0bfef168f8e7ddca5r		; -0.971504
	DQ	0bfef2253111f0c35r		; -0.97294
	DQ	0bfef2dc8fb86f47br		; -0.974339
	DQ	0bfef38f36694898fr		; -0.975702
	DQ	0bfef43d03968d75ar		; -0.977028
	DQ	0bfef4e5f7403dddbr		; -0.978317
	DQ	0bfef58a32f44912ar		; -0.97957
	DQ	0bfef6297396d0918r		; -0.980785
	DQ	0bfef6c3fc43b2dd3r		; -0.981964
	DQ	0bfef75989df1172fr		; -0.983105
	DQ	0bfef7ea5f84cad58r		; -0.98421
	DQ	0bfef8765ba6efc37r		; -0.985278
	DQ	0bfef8fd5cb790fb6r		; -0.986308
	DQ	0bfef97f84449dbecr		; -0.987301
	DQ	0bfef9fcf3dc054efr		; -0.988258
	DQ	0bfefa756861e9292r		; -0.989177
	DQ	0bfefae8e1d6494d5r		; -0.990058
	DQ	0bfefb57a355043e5r		; -0.990903
	DQ	0bfefbc169c23b795r		; -0.99171
	DQ	0bfefc2656abde3fcr		; -0.99248
	DQ	0bfefc864883fd502r		; -0.993212
	DQ	0bfefce160d887ebfr		; -0.993907
	DQ	0bfefd379fa97e133r		; -0.994565
	DQ	0bfefd88e368f0846r		; -0.995185
	DQ	0bfefdd52c16df3f9r		; -0.995767
	DQ	0bfefe1cbccf28c7ar		; -0.996313
	DQ	0bfefe5f30e7ff584r		; -0.99682
	DQ	0bfefe9ccb7d41744r		; -0.99729
	DQ	0bfefed58c8eef1bbr		; -0.997723
	DQ	0bfeff09528f190d1r		; -0.998118
	DQ	0bfeff383f0bae89fr		; -0.998476
	DQ	0bfeff620ee8d10f5r		; -0.998795
	DQ	0bfeff8726d04e619r		; -0.999078
	DQ	0bfeffa7221858bc6r		; -0.999322
	DQ	0bfeffc243dccea29r		; -0.999529
	DQ	0bfeffd88c1db0143r		; -0.999699
	DQ	0bfeffe9d94d0dcfdr		; -0.999831
	DQ	0bfefff62b6ae7d56r		; -0.999925
	DQ	0bfefffd82773e250r		; -0.999981
	DQ	0bff0000000000000r		; -1
	DQ	0bfefffd82773e250r		; -0.999981
	DQ	0bfefff62b6ae7d56r		; -0.999925
	DQ	0bfeffe9d94d0dcfdr		; -0.999831
	DQ	0bfeffd88c1db0143r		; -0.999699
	DQ	0bfeffc243dccea29r		; -0.999529
	DQ	0bfeffa7221858bc6r		; -0.999322
	DQ	0bfeff8726d04e619r		; -0.999078
	DQ	0bfeff620ee8d10f5r		; -0.998795
	DQ	0bfeff383f0bae89fr		; -0.998476
	DQ	0bfeff09528f190d1r		; -0.998118
	DQ	0bfefed58c8eef1bbr		; -0.997723
	DQ	0bfefe9ccb7d41744r		; -0.99729
	DQ	0bfefe5f30e7ff584r		; -0.99682
	DQ	0bfefe1cbccf28c7ar		; -0.996313
	DQ	0bfefdd52c16df3f9r		; -0.995767
	DQ	0bfefd88e368f0846r		; -0.995185
	DQ	0bfefd379fa97e133r		; -0.994565
	DQ	0bfefce160d887ebfr		; -0.993907
	DQ	0bfefc864883fd502r		; -0.993212
	DQ	0bfefc2656abde3fcr		; -0.99248
	DQ	0bfefbc169c23b795r		; -0.99171
	DQ	0bfefb57a355043e5r		; -0.990903
	DQ	0bfefae8e1d6494d5r		; -0.990058
	DQ	0bfefa756861e9292r		; -0.989177
	DQ	0bfef9fcf3dc054efr		; -0.988258
	DQ	0bfef97f84449dbecr		; -0.987301
	DQ	0bfef8fd5cb790fb6r		; -0.986308
	DQ	0bfef8765ba6efc37r		; -0.985278
	DQ	0bfef7ea5f84cad58r		; -0.98421
	DQ	0bfef75989df1172fr		; -0.983105
	DQ	0bfef6c3fc43b2dd3r		; -0.981964
	DQ	0bfef6297396d0918r		; -0.980785
	DQ	0bfef58a32f44912ar		; -0.97957
	DQ	0bfef4e5f7403dddbr		; -0.978317
	DQ	0bfef43d03968d75ar		; -0.977028
	DQ	0bfef38f36694898fr		; -0.975702
	DQ	0bfef2dc8fb86f47br		; -0.974339
	DQ	0bfef2253111f0c35r		; -0.97294
	DQ	0bfef168f8e7ddca5r		; -0.971504
	DQ	0bfef0a7e73a365cbr		; -0.970031
	DQ	0bfeefe21d96e9bbfr		; -0.968522
	DQ	0bfeef177a7008a69r		; -0.966976
	DQ	0bfeee481f53825e1r		; -0.965394
	DQ	0bfeed740c4156e26r		; -0.963776
	DQ	0bfeec9b1fab96f22r		; -0.962121
	DQ	0bfeebbd9cae21102r		; -0.960431
	DQ	0bfeeadb1e9f27781r		; -0.958703
	DQ	0bfee9f40a2877ee5r		; -0.95694
	DQ	0bfee9083dbc23316r		; -0.955141
	DQ	0bfee817b95a29414r		; -0.953306
	DQ	0bfee7227d028a1e0r		; -0.951435
	DQ	0bfee62888b545c79r		; -0.949528
	DQ	0bfee529fe004b7f6r		; -0.947586
	DQ	0bfee42699c7bcc29r		; -0.945607
	DQ	0bfee31e9f2778141r		; -0.943593
	DQ	0bfee2120e1f7d73dr		; -0.941544
	DQ	0bfee100c521dda06r		; -0.939459
	DQ	0bfedfeae5bc87db3r		; -0.937339
	DQ	0bfeded06fef7c244r		; -0.935184
	DQ	0bfeddb1422ccb3a2r		; -0.932993
	DQ	0bfedc8d7e02645e5r		; -0.930767
	DQ	0bfedb6523704790cr		; -0.928506
	DQ	0bfeda38327674d16r		; -0.92621
	DQ	0bfed906cca2db61cr		; -0.92388
	DQ	0bfed7d0aed99cbefr		; -0.921514
	DQ	0bfed6961c36976bcr		; -0.919114
	DQ	0bfed556f32bdc26er		; -0.916679
	DQ	0bfed41355475a31ar		; -0.91421
	DQ	0bfed2cb20fb224abr		; -0.911706
	DQ	0bfed17e77d523b36r		; -0.909168
	DQ	0bfed02d59d55e6bcr		; -0.906596
	DQ	0bfeced7a56de3327r		; -0.903989
	DQ	0bfecd7d9dba908a2r		; -0.901349
	DQ	0bfecc1eff9f87f02r		; -0.898674
	DQ	0bfecabc0e38a7e74r		; -0.895966
	DQ	0bfec954a7f8012e0r		; -0.893224
	DQ	0bfec7e8ee6b8305er		; -0.890449
	DQ	0bfec678c0053e2d6r		; -0.88764
	DQ	0bfec5041cc532a49r		; -0.884797
	DQ	0bfec38b26394facer		; -0.881921
	DQ	0bfec20ddc6195465r		; -0.879012
	DQ	0bfec08c3f3e0370dr		; -0.87607
	DQ	0bfebf064ece9a2c6r		; -0.873095
	DQ	0bfebd7c0b1359792r		; -0.870087
	DQ	0bfebbed740c4156er		; -0.867046
	DQ	0bfeba5aab4741073r		; -0.863973
	DQ	0bfeb8c38f366948ar		; -0.860867
	DQ	0bfeb7284167a95c8r		; -0.857729
	DQ	0bfeb588a04d12019r		; -0.854558
	DQ	0bfeb3e4cd7492791r		; -0.851355
	DQ	0bfeb23cc8de2ac32r		; -0.84812
	DQ	0bfeb090b417ca212r		; -0.844854
	DQ	0bfeaee04c0592104r		; -0.841555
	DQ	0bfead2bd3c361134r		; -0.838225
	DQ	0bfeab7329c347e8dr		; -0.834863
	DQ	0bfea9b66f9335d25r		; -0.83147
	DQ	0bfea7f583a53b8e5r		; -0.828045
	DQ	0bfea6308787485e4r		; -0.824589
	DQ	0bfea4679cc74b839r		; -0.821103
	DQ	0bfea29a8049667b6r		; -0.817585
	DQ	0bfea0c9539b88872r		; -0.814036
	DQ	0bfe9ef4384ba0e84r		; -0.810457
	DQ	0bfe9d1b2e59af9ecr		; -0.806848
	DQ	0bfe9b3e1437c5693r		; -0.803208
	DQ	0bfe995ce9e5e2479r		; -0.799537
	DQ	0bfe9777f27fe4bcbr		; -0.795837
	DQ	0bfe958f0c77dd873r		; -0.792107
	DQ	0bfe93a2163fdd65ar		; -0.788346
	DQ	0bfe91b17481b21c4r		; -0.784557
	DQ	0bfe8fbcc2938de6er		; -0.780737
	DQ	0bfe8dc443914f484r		; -0.776888
	DQ	0bfe8bc7f77af6406r		; -0.77301
	DQ	0bfe89c7de5082cf5r		; -0.769103
	DQ	0bfe87c3f811f4f51r		; -0.765167
	DQ	0bfe85bc44bf4cb19r		; -0.761202
	DQ	0bfe83b0e5e679464r		; -0.757209
	DQ	0bfe81a1b9f98b71cr		; -0.753187
	DQ	0bfe7f8ec0f883340r		; -0.749136
	DQ	0bfe7d783dff3f0fer		; -0.745058
	DQ	0bfe7b5dedf1e0829r		; -0.740951
	DQ	0bfe794013ec460eer		; -0.736817
	DQ	0bfe771e6cd29131fr		; -0.732654
	DQ	0bfe74f93bc0a06ear		; -0.728464
	DQ	0bfe72d080b673c4fr		; -0.724247
	DQ	0bfe70a43bb40b34er		; -0.720003
	DQ	0bfe6e744b2b777d1r		; -0.715731
	DQ	0bfe6c40d0aaa7dedr		; -0.711432
	DQ	0bfe6a09edbf8b9bbr		; -0.707107
	DQ	0bfe67cf80dc33722r		; -0.702755
	DQ	0bfe65918a009f623r		; -0.698376
	DQ	0bfe63502ababead5r		; -0.693971
	DQ	0bfe610b84988094er		; -0.689541
	DQ	0bfe5ec3547e06962r		; -0.685084
	DQ	0bfe5c77bbf93ff26r		; -0.680601
	DQ	0bfe5a28dc981beb2r		; -0.676093
	DQ	0bfe57d694ccab3eer		; -0.671559
	DQ	0bfe55810624dd2f2r		; -0.667
	DQ	0bfe532830a0b1bbdr		; -0.662416
	DQ	0bfe50cc144028e50r		; -0.657807
	DQ	0bfe4e6cb10342aaar		; -0.653173
	DQ	0bfe4c0a06e9ff0ccr		; -0.648514
	DQ	0bfe49a459103c8e2r		; -0.643832
	DQ	0bfe473b42cc2d6aar		; -0.639124
	DQ	0bfe44cf28c79f666r		; -0.634393
	DQ	0bfe425fe974a3401r		; -0.629638
	DQ	0bfe3fed84d338f7ar		; -0.624859
	DQ	0bfe3d781c714fce7r		; -0.620057
	DQ	0bfe3affb04ee7c4ar		; -0.615232
	DQ	0bfe38841ede1198br		; -0.610383
	DQ	0bfe360589acbc8c1r		; -0.605511
	DQ	0bfe3383f0bae89ecr		; -0.600616
	DQ	0bfe30ff759685122r		; -0.595699
	DQ	0bfe2e78183f91e64r		; -0.59076
	DQ	0bfe2bedb7281fd9cr		; -0.585798
	DQ	0bfe296073de1e2dfr		; -0.580814
	DQ	0bfe26d04e618ce2dr		; -0.575808
	DQ	0bfe243d68405b39er		; -0.570781
	DQ	0bfe21a79fec99f1br		; -0.565732
	DQ	0bfe1f0f16f4384bar		; -0.560662
	DQ	0bfe1c73abc947065r		; -0.55557
	DQ	0bfe19d5a187a4a49r		; -0.550458
	DQ	0bfe1734d6a161e4fr		; -0.545325
	DQ	0bfe14914b167ec78r		; -0.540171
	DQ	0bfe11eb4202d9cf1r		; -0.534998
	DQ	0bfe0f42784a9478dr		; -0.529804
	DQ	0bfe0c970f7b9e061r		; -0.52459
	DQ	0bfe09e90795f676fr		; -0.519356
	DQ	0bfe073882278d0ccr		; -0.514103
	DQ	0bfe04855da272863r		; -0.50883
	DQ	0bfe01cfbb949624ar		; -0.503538
	DQ	0bfdfe2f7b17ce52er		; -0.498228
	DQ	0bfdf8ba40d90e23br		; -0.492898
	DQ	0bfdf3404ea4a8c15r		; -0.48755
	DQ	0bfdedc1a47a9e2bdr		; -0.482184
	DQ	0bfde83dff3f0fe04r		; -0.476799
	DQ	0bfde2b5e529bae47r		; -0.471397
	DQ	0bfddd28d002e2329r		; -0.465976
	DQ	0bfdd797891e21533r		; -0.460539
	DQ	0bfdd2018a43bb40br		; -0.455084
	DQ	0bfdcc66d373affb0r		; -0.449611
	DQ	0bfdc6c7eae5bc87er		; -0.444122
	DQ	0bfdc1248d7e02646r		; -0.438616
	DQ	0bfdbb7cfe5860136r		; -0.433094
	DQ	0bfdb5d0fa58f7122r		; -0.427555
	DQ	0bfdb020c49ba5e35r		; -0.422
	DQ	0bfdaa6ca03c4b09fr		; -0.41643
	DQ	0bfda4b4070329803r		; -0.410843
	DQ	0bfd9ef77f27fe4bdr		; -0.405241
	DQ	0bfd993708aac96ccr		; -0.399624
	DQ	0bfd9372a38b8ae32r		; -0.393992
	DQ	0bfd8daa4fca42aedr		; -0.388345
	DQ	0bfd87de0d66f0cfer		; -0.382683
	DQ	0bfd820e1f7d73c92r		; -0.377007
	DQ	0bfd7c3a860dcb9aar		; -0.371317
	DQ	0bfd76634117f8445r		; -0.365613
	DQ	0bfd7088509bf9c63r		; -0.359895
	DQ	0bfd6aa9f7b5aea31r		; -0.354164
	DQ	0bfd64c7f34938583r		; -0.348419
	DQ	0bfd5ee2867275686r		; -0.342661
	DQ	0bfd58f9b13165d3ar		; -0.33689
	DQ	0bfd530d73860999er		; -0.331106
	DQ	0bfd4d1e108c3f3e0r		; -0.32531
	DQ	0bfd472b884406c01r		; -0.319502
	DQ	0bfd4135daad60200r		; -0.313682
	DQ	0bfd3b3d07c84b5ddr		; -0.30785
	DQ	0bfd35410f94c8798r		; -0.302006
	DQ	0bfd2f42352eb5f5fr		; -0.296151
	DQ	0bfd2940789613d32r		; -0.290285
	DQ	0bfd233bd9cae2110r		; -0.284408
	DQ	0bfd1d3458cd20afar		; -0.27852
	DQ	0bfd1729f59ccfaf0r		; -0.272621
	DQ	0bfd111d3671ac14cr		; -0.266713
	DQ	0bfd0b0d9513f8db5r		; -0.260794
	DQ	0bfd04fb97bb73083r		; -0.254866
	DQ	0bfcfdcdf69878317r		; -0.248928
	DQ	0bfcf19f7f8ca8199r		; -0.24298
	DQ	0bfce56cd6c2efd44r		; -0.237024
	DQ	0bfcd934efcbd5561r		; -0.231058
	DQ	0bfcccf8d716d2aa6r		; -0.225084
	DQ	0bfcc0b8066c2acb8r		; -0.219101
	DQ	0bfcb47304039abf3r		; -0.21311
	DQ	0bfca829cfdd22856r		; -0.207111
	DQ	0bfc9bdcf0307f23dr		; -0.201105
	DQ	0bfc8f8b588e368f1r		; -0.19509
	DQ	0bfc83369b9d7fd82r		; -0.189069
	DQ	0bfc76ddaceee0f3dr		; -0.18304
	DQ	0bfc6a8112ba16e7ar		; -0.177004
	DQ	0bfc5e215336deb96r		; -0.170962
	DQ	0bfc51bde82d7b635r		; -0.164913
	DQ	0bfc455757d5a9eb2r		; -0.158858
	DQ	0bfc38eda22f6a50dr		; -0.152797
	DQ	0bfc2c80c73abc947r		; -0.14673
	DQ	0bfc20114d2f5dbbar		; -0.140658
	DQ	0bfc139f340d4dc66r		; -0.134581
	DQ	0bfc0729f59ccfaf0r		; -0.128498
	DQ	0bfbf5653c9abb01dr		; -0.122411
	DQ	0bfbdc714fce746ccr		; -0.116319
	DQ	0bfbc37824d4cb9edr		; -0.110222
	DQ	0bfbaa7bd48cb4aedr		; -0.104122
	DQ	0bfb917a46173b85fr		; -0.098017
	DQ	0bfb78759253543afr		; -0.091909
	DQ	0bfb5f6cacd184c27r		; -0.085797
	DQ	0bfb4660a2014727er		; -0.079682
	DQ	0bfb2d527e5215769r		; -0.073565
	DQ	0bfb144028e4fb97cr		; -0.067444
	DQ	0bfaf6577531db446r		; -0.061321
	DQ	0bfac4284dfce3151r		; -0.055195
	DQ	0bfa91f70de8f6cf0r		; -0.049068
	DQ	0bfa5fbf83382e44br		; -0.042938
	DQ	0bfa2d85dfa871a3br		; -0.036807
	DQ	0bf9f694467381d7er		; -0.030675
	DQ	0bf992146a1a500d6r		; -0.024541
	DQ	0bf92d948dc11e42er		; -0.018407
	DQ	0bf89220ff540895dr		; -0.012272
	DQ	0bf79220ff540895dr		; -0.006136
_DATA	ENDS
PUBLIC	_PlayTones
PUBLIC	__real@8@3ff683126e978d4fe000
PUBLIC	__real@8@bff583126e978d4fe000
PUBLIC	__real@8@40078000000000000000
PUBLIC	__real@8@40098000000000000000
PUBLIC	__real@8@3ffca000000000000000
EXTRN	__imp__free:NEAR
EXTRN	__imp__malloc:NEAR
EXTRN	_OutputData:NEAR
EXTRN	__ftol:NEAR
EXTRN	__fltused:NEAR
;	COMDAT __real@8@3ff683126e978d4fe000
; File D:\work\product\dapi\src\vtm\PLAYTONE.C
CONST	SEGMENT
__real@8@3ff683126e978d4fe000 DQ 03f60624dd2f1a9fcr ; 0.002
CONST	ENDS
;	COMDAT __real@8@bff583126e978d4fe000
CONST	SEGMENT
__real@8@bff583126e978d4fe000 DQ 0bf50624dd2f1a9fcr ; -0.001
CONST	ENDS
;	COMDAT __real@8@40078000000000000000
CONST	SEGMENT
__real@8@40078000000000000000 DQ 04070000000000000r ; 256
CONST	ENDS
;	COMDAT __real@8@40098000000000000000
CONST	SEGMENT
__real@8@40098000000000000000 DQ 04090000000000000r ; 1024
CONST	ENDS
;	COMDAT __real@8@3ffca000000000000000
CONST	SEGMENT
__real@8@3ffca000000000000000 DQ 03fc4000000000000r ; 0.15625
CONST	ENDS
_TEXT	SEGMENT
_phTTS$ = 8
_DurationInMsec$ = 12
_Freq_0$ = 20
_Amp_0$ = 28
_Freq_1$ = 36
_Amp_1$ = 44
_SampleRate$ = 52
_iRiseSamples$ = -68
_iCenterSamples$ = -60
_iCenterCount$ = -56
_pRiseBuffer$ = -52
_pToneBuffer$ = -64
_Sample$ = -16
_PhaseIncrement_0$ = -32
_Phase_0$ = -40
_PhaseIncrement_1$ = -24
_Phase_1$ = -8
_pKsd_t$ = -48
_PlayTones PROC NEAR

; 144  : {

  00000	55		 push	 ebp
  00001	8b ec		 mov	 ebp, esp
  00003	83 e4 f8	 and	 esp, -8			; fffffff8H
  00006	83 ec 44	 sub	 esp, 68			; 00000044H

; 145  :   int i;
; 146  :   int iRiseSamples;
; 147  :   int iCenterSamples;
; 148  :   int iCenterCount;
; 149  :   int iSynthCount;
; 150  :   int iTotalSamples;
; 151  :   double * pRiseBuffer;
; 152  :   double * pRise;
; 153  :   short * pToneBuffer;
; 154  :   short * pBuffer;
; 155  :   double Sample;
; 156  :   double PhaseIncrement_0;
; 157  :   double Phase_0;
; 158  :   double PhaseIncrement_1;
; 159  :   double Phase_1;
; 160  :   DWORD dwDurationInFrames;
; 161  :   PKSD_T pKsd_t = phTTS->pKernelShareData;

  00009	8b 45 08	 mov	 eax, DWORD PTR _phTTS$[ebp]
  0000c	53		 push	 ebx

; 162  :   /********************************************************************/
; 163  :   /*  Calculate the duration in frames.                               */
; 164  :   /********************************************************************/
; 165  : 
; 166  :   dwDurationInFrames = (int)( 0.15625 * DurationInMsec );
; 167  : 
; 168  :   /********************************************************************/
; 169  :   /*  Calculate the tone generation parameters.                       */
; 170  :   /********************************************************************/
; 171  : 
; 172  :   iTotalSamples = (int)( 0.001 * DurationInMsec * SampleRate );
; 173  :   iRiseSamples = (int)((double)RISE_TIME * SampleRate );

  0000d	dd 45 34	 fld	 QWORD PTR _SampleRate$[ebp]
  00010	dc 0d 00 00 00
	00		 fmul	 QWORD PTR __real@8@3ff683126e978d4fe000
  00016	8b 48 08	 mov	 ecx, DWORD PTR [eax+8]
  00019	56		 push	 esi
  0001a	57		 push	 edi
  0001b	89 4c 24 20	 mov	 DWORD PTR _pKsd_t$[esp+80], ecx
  0001f	e8 00 00 00 00	 call	 __ftol

; 311  : 
; 312  :   return( FALSE );

  00024	dd 45 0c	 fld	 QWORD PTR _DurationInMsec$[ebp]
  00027	dc 4d 34	 fmul	 QWORD PTR _SampleRate$[ebp]
  0002a	8b f8		 mov	 edi, eax
  0002c	89 7c 24 0c	 mov	 DWORD PTR _iRiseSamples$[esp+80], edi
  00030	dc 0d 00 00 00
	00		 fmul	 QWORD PTR __real@8@bff583126e978d4fe000
  00036	e8 00 00 00 00	 call	 __ftol
  0003b	8d 0c 3f	 lea	 ecx, DWORD PTR [edi+edi]
  0003e	f7 d9		 neg	 ecx
  00040	2b c8		 sub	 ecx, eax
  00042	89 4c 24 14	 mov	 DWORD PTR _iCenterSamples$[esp+80], ecx
  00046	79 10		 jns	 SHORT $L70804
  00048	d1 f9		 sar	 ecx, 1
  0004a	89 4c 24 0c	 mov	 DWORD PTR _iRiseSamples$[esp+80], ecx
  0004e	c7 44 24 14 00
	00 00 00	 mov	 DWORD PTR _iCenterSamples$[esp+80], 0
  00056	8b f9		 mov	 edi, ecx
$L70804:
  00058	8b 35 00 00 00
	00		 mov	 esi, DWORD PTR __imp__malloc
  0005e	68 00 08 00 00	 push	 2048			; 00000800H
  00063	ff d6		 call	 esi
  00065	8b d8		 mov	 ebx, eax
  00067	83 c4 04	 add	 esp, 4
  0006a	85 db		 test	 ebx, ebx
  0006c	89 5c 24 10	 mov	 DWORD PTR _pToneBuffer$[esp+80], ebx
  00070	75 0c		 jne	 SHORT $L70808

; 174  :   iCenterSamples = iTotalSamples - ( iRiseSamples << 1 );
; 175  : 
; 176  :   if ( iCenterSamples < 0 )
; 177  :   {
; 178  :     iRiseSamples = iCenterSamples >> 1;
; 179  :     iCenterSamples = 0;
; 180  :   }
; 181  : 
; 182  :   /********************************************************************/
; 183  :   /*  Allocate the tone audio buffer.                                 */
; 184  :   /********************************************************************/
; 185  : 
; 186  :   pToneBuffer = (short *)malloc( MAX_TONE_BLOCK * sizeof(short));
; 187  : 
; 188  :   if ( pToneBuffer == NULL )
; 189  :   {
; 190  :     return( TRUE );

  00072	b8 01 00 00 00	 mov	 eax, 1

; 313  : }

  00077	5f		 pop	 edi
  00078	5e		 pop	 esi
  00079	5b		 pop	 ebx
  0007a	8b e5		 mov	 esp, ebp
  0007c	5d		 pop	 ebp
  0007d	c3		 ret	 0
$L70808:

; 191  :   }
; 192  : 
; 193  :   /********************************************************************/
; 194  :   /*  Allocate the rise gain buffer.                                  */
; 195  :   /********************************************************************/
; 196  : 
; 197  :   pRiseBuffer = (double *)malloc( iRiseSamples * sizeof(double));

  0007e	8d 14 fd 00 00
	00 00		 lea	 edx, DWORD PTR [edi*8]
  00085	52		 push	 edx
  00086	ff d6		 call	 esi
  00088	83 c4 04	 add	 esp, 4
  0008b	89 44 24 1c	 mov	 DWORD PTR _pRiseBuffer$[esp+80], eax

; 198  : 
; 199  :   if ( pRiseBuffer == NULL )

  0008f	85 c0		 test	 eax, eax
  00091	75 0c		 jne	 SHORT $L70812

; 200  :   {
; 201  :     return( TRUE );

  00093	b8 01 00 00 00	 mov	 eax, 1

; 313  : }

  00098	5f		 pop	 edi
  00099	5e		 pop	 esi
  0009a	5b		 pop	 ebx
  0009b	8b e5		 mov	 esp, ebp
  0009d	5d		 pop	 ebp
  0009e	c3		 ret	 0
$L70812:

; 202  :   }
; 203  : 
; 204  :   /******************************************************************/
; 205  :   /*  Build the rise time table.                                    */
; 206  :   /******************************************************************/
; 207  : 
; 208  :   PhaseIncrement_0 = 0.25 * TWO_PI_EQUIVALENT / (double)iRiseSamples;

  0009f	db 44 24 0c	 fild	 DWORD PTR _iRiseSamples$[esp+80]

; 209  :   Phase_0 = 0.0;
; 210  : 
; 211  :   pRise = pRiseBuffer;
; 212  : 
; 213  :   for ( i = 0; i < iRiseSamples; i++ )

  000a3	85 ff		 test	 edi, edi
  000a5	c7 44 24 28 00
	00 00 00	 mov	 DWORD PTR _Phase_0$[esp+80], 0
  000ad	c7 44 24 2c 00
	00 00 00	 mov	 DWORD PTR _Phase_0$[esp+84], 0
  000b5	dc 3d 00 00 00
	00		 fdivr	 QWORD PTR __real@8@40078000000000000000
  000bb	8b f0		 mov	 esi, eax
  000bd	dd 5c 24 30	 fstp	 QWORD PTR _PhaseIncrement_0$[esp+80]
  000c1	7e 35		 jle	 SHORT $L70816

; 202  :   }
; 203  : 
; 204  :   /******************************************************************/
; 205  :   /*  Build the rise time table.                                    */
; 206  :   /******************************************************************/
; 207  : 
; 208  :   PhaseIncrement_0 = 0.25 * TWO_PI_EQUIVALENT / (double)iRiseSamples;

  000c3	8b df		 mov	 ebx, edi
$L70814:

; 214  :   {
; 215  :     Sample = SineTable[(int)Phase_0];

  000c5	dd 44 24 28	 fld	 QWORD PTR _Phase_0$[esp+80]
  000c9	e8 00 00 00 00	 call	 __ftol
  000ce	dd 04 c5 00 00
	00 00		 fld	 QWORD PTR _SineTable[eax*8]

; 216  :     *pRise++ = Sample * Sample;

  000d5	d9 c0		 fld	 ST(0)
  000d7	d8 c9		 fmul	 ST(0), ST(1)
  000d9	83 c6 08	 add	 esi, 8
  000dc	4b		 dec	 ebx
  000dd	dd 5e f8	 fstp	 QWORD PTR [esi-8]
  000e0	dd d8		 fstp	 ST(0)

; 217  :     Phase_0 += PhaseIncrement_0;

  000e2	dd 44 24 28	 fld	 QWORD PTR _Phase_0$[esp+80]
  000e6	dc 44 24 30	 fadd	 QWORD PTR _PhaseIncrement_0$[esp+80]
  000ea	dd 5c 24 28	 fstp	 QWORD PTR _Phase_0$[esp+80]
  000ee	75 d5		 jne	 SHORT $L70814
  000f0	8b 44 24 1c	 mov	 eax, DWORD PTR _pRiseBuffer$[esp+80]
  000f4	8b 5c 24 10	 mov	 ebx, DWORD PTR _pToneBuffer$[esp+80]
$L70816:

; 218  :   }
; 219  : 
; 220  :   /********************************************************************/
; 221  :   /*  Generate tones.                                                 */
; 222  :   /********************************************************************/
; 223  : 
; 224  :   PhaseIncrement_0 = Freq_0 * pKsd_t->SamplePeriod * TWO_PI_EQUIVALENT;

  000f8	8b 4c 24 20	 mov	 ecx, DWORD PTR _pKsd_t$[esp+80]

; 225  :   Phase_0 = 0.0;
; 226  :   PhaseIncrement_1 = Freq_1 * pKsd_t->SamplePeriod * TWO_PI_EQUIVALENT;
; 227  :   Phase_1 = 0.0;
; 228  : 
; 229  :   /********************************************************************/
; 230  :   /*  Generate Samples during the rise time portion of the tone.      */
; 231  :   /********************************************************************/
; 232  : 
; 233  :   pBuffer = pToneBuffer;

  000fc	8b f3		 mov	 esi, ebx
  000fe	dd 45 14	 fld	 QWORD PTR _Freq_0$[ebp]
  00101	dc 89 30 02 00
	00		 fmul	 QWORD PTR [ecx+560]
  00107	c7 44 24 28 00
	00 00 00	 mov	 DWORD PTR _Phase_0$[esp+80], 0
  0010f	c7 44 24 2c 00
	00 00 00	 mov	 DWORD PTR _Phase_0$[esp+84], 0

; 234  : 
; 235  :   for ( i = 0; i < iRiseSamples; i++ )

  00117	85 ff		 test	 edi, edi
  00119	dc 0d 00 00 00
	00		 fmul	 QWORD PTR __real@8@40098000000000000000
  0011f	dd 5c 24 30	 fstp	 QWORD PTR _PhaseIncrement_0$[esp+80]
  00123	dd 45 24	 fld	 QWORD PTR _Freq_1$[ebp]
  00126	dc 89 30 02 00
	00		 fmul	 QWORD PTR [ecx+560]
  0012c	8b 5c 24 34	 mov	 ebx, DWORD PTR _PhaseIncrement_0$[esp+84]
  00130	c7 44 24 48 00
	00 00 00	 mov	 DWORD PTR _Phase_1$[esp+80], 0
  00138	c7 44 24 4c 00
	00 00 00	 mov	 DWORD PTR _Phase_1$[esp+84], 0
  00140	dc 0d 00 00 00
	00		 fmul	 QWORD PTR __real@8@40098000000000000000
  00146	dd 5c 24 38	 fstp	 QWORD PTR _PhaseIncrement_1$[esp+80]
  0014a	7e 5e		 jle	 SHORT $L70820
  0014c	8b f8		 mov	 edi, eax
  0014e	8b 44 24 0c	 mov	 eax, DWORD PTR _iRiseSamples$[esp+80]
  00152	89 44 24 18	 mov	 DWORD PTR -56+[esp+80], eax
$L70818:

; 236  :   {
; 237  :     Sample  = Amp_0 * Tone( PhaseIncrement_0, &Phase_0 );

  00156	8b 54 24 30	 mov	 edx, DWORD PTR _PhaseIncrement_0$[esp+80]
  0015a	8d 4c 24 28	 lea	 ecx, DWORD PTR _Phase_0$[esp+80]
  0015e	51		 push	 ecx
  0015f	53		 push	 ebx
  00160	52		 push	 edx
  00161	e8 00 00 00 00	 call	 _Tone
  00166	dc 4d 1c	 fmul	 QWORD PTR _Amp_0$[ebp]

; 238  :     Sample += Amp_1 * Tone( PhaseIncrement_1, &Phase_1 );

  00169	8b 4c 24 48	 mov	 ecx, DWORD PTR _PhaseIncrement_1$[esp+96]
  0016d	8b 54 24 44	 mov	 edx, DWORD PTR _PhaseIncrement_1$[esp+92]
  00171	8d 44 24 54	 lea	 eax, DWORD PTR _Phase_1$[esp+92]
  00175	50		 push	 eax
  00176	51		 push	 ecx
  00177	dd 5c 24 54	 fstp	 QWORD PTR _Sample$[esp+100]
  0017b	52		 push	 edx
  0017c	e8 00 00 00 00	 call	 _Tone
  00181	dc 4d 2c	 fmul	 QWORD PTR _Amp_1$[ebp]
  00184	83 c4 18	 add	 esp, 24			; 00000018H
  00187	dc 44 24 40	 fadd	 QWORD PTR _Sample$[esp+80]

; 239  :     *pBuffer++ = (short)( pRiseBuffer[i] * Sample );

  0018b	dc 0f		 fmul	 QWORD PTR [edi]
  0018d	e8 00 00 00 00	 call	 __ftol
  00192	66 89 06	 mov	 WORD PTR [esi], ax
  00195	8b 44 24 18	 mov	 eax, DWORD PTR -56+[esp+80]
  00199	83 c6 02	 add	 esi, 2
  0019c	83 c7 08	 add	 edi, 8
  0019f	48		 dec	 eax
  001a0	89 44 24 18	 mov	 DWORD PTR -56+[esp+80], eax
  001a4	75 b0		 jne	 SHORT $L70818

; 234  : 
; 235  :   for ( i = 0; i < iRiseSamples; i++ )

  001a6	8b 7c 24 0c	 mov	 edi, DWORD PTR _iRiseSamples$[esp+80]
$L70820:

; 240  :   }
; 241  : 
; 242  :   /********************************************************************/
; 243  :   /*  Play the rise time portion of the tone waveform.                */
; 244  :   /*  Also send the duration which is in multiples of 6.4 msec.       */
; 245  :   /********************************************************************/
; 246  : 
; 247  :   OutputData( phTTS,
; 248  :               pToneBuffer,
; 249  :               iRiseSamples,
; 250  :               TONE_SYMBOL,
; 251  :               (DWORD)( 0.15625 * DurationInMsec ));

  001aa	dd 45 0c	 fld	 QWORD PTR _DurationInMsec$[ebp]
  001ad	dc 0d 00 00 00
	00		 fmul	 QWORD PTR __real@8@3ffca000000000000000
  001b3	e8 00 00 00 00	 call	 __ftol
  001b8	8b 4d 08	 mov	 ecx, DWORD PTR _phTTS$[ebp]
  001bb	50		 push	 eax
  001bc	8b 44 24 14	 mov	 eax, DWORD PTR _pToneBuffer$[esp+84]
  001c0	68 ff 7f 00 00	 push	 32767			; 00007fffH
  001c5	57		 push	 edi
  001c6	50		 push	 eax
  001c7	51		 push	 ecx
  001c8	e8 00 00 00 00	 call	 _OutputData

; 252  : 
; 253  :   /********************************************************************/
; 254  :   /*  Generate the center portion of the tone.                        */
; 255  :   /********************************************************************/
; 256  : 
; 257  :   iCenterCount = 0;
; 258  : 
; 259  :   while (( iCenterCount < iCenterSamples ) && ( ! pKsd_t->halting))

  001cd	8b 44 24 28	 mov	 eax, DWORD PTR _iCenterSamples$[esp+100]
  001d1	83 c4 14	 add	 esp, 20			; 00000014H
  001d4	85 c0		 test	 eax, eax
  001d6	c7 44 24 18 00
	00 00 00	 mov	 DWORD PTR _iCenterCount$[esp+80], 0
  001de	0f 8e b1 00 00
	00		 jle	 $L70825
$L70824:
  001e4	8b 54 24 20	 mov	 edx, DWORD PTR _pKsd_t$[esp+80]
  001e8	8b 82 74 01 00
	00		 mov	 eax, DWORD PTR [edx+372]
  001ee	85 c0		 test	 eax, eax
  001f0	0f 85 9f 00 00
	00		 jne	 $L70825

; 260  :   {
; 261  :     iSynthCount = iCenterSamples - iCenterCount;

  001f6	8b 7c 24 14	 mov	 edi, DWORD PTR _iCenterSamples$[esp+80]
  001fa	8b 4c 24 18	 mov	 ecx, DWORD PTR _iCenterCount$[esp+80]
  001fe	2b f9		 sub	 edi, ecx

; 262  : 
; 263  :     if ( iSynthCount > MAX_TONE_BLOCK )

  00200	81 ff 00 04 00
	00		 cmp	 edi, 1024		; 00000400H
  00206	7e 05		 jle	 SHORT $L70826

; 264  :     {
; 265  :       iSynthCount = MAX_TONE_BLOCK;

  00208	bf 00 04 00 00	 mov	 edi, 1024		; 00000400H
$L70826:

; 266  :     }
; 267  : 
; 268  :     pBuffer = pToneBuffer;

  0020d	8b 74 24 10	 mov	 esi, DWORD PTR _pToneBuffer$[esp+80]

; 269  : 
; 270  :     for ( i = 0; i < iSynthCount; i++ )

  00211	85 ff		 test	 edi, edi
  00213	7e 4f		 jle	 SHORT $L70829

; 266  :     }
; 267  : 
; 268  :     pBuffer = pToneBuffer;

  00215	89 7c 24 24	 mov	 DWORD PTR -44+[esp+80], edi
$L70827:

; 271  :     {
; 272  :       Sample  = Amp_0 * Tone( PhaseIncrement_0, &Phase_0 );

  00219	8b 4c 24 30	 mov	 ecx, DWORD PTR _PhaseIncrement_0$[esp+80]
  0021d	8d 44 24 28	 lea	 eax, DWORD PTR _Phase_0$[esp+80]
  00221	50		 push	 eax
  00222	53		 push	 ebx
  00223	51		 push	 ecx
  00224	e8 00 00 00 00	 call	 _Tone
  00229	dc 4d 1c	 fmul	 QWORD PTR _Amp_0$[ebp]

; 273  :       Sample += Amp_1 * Tone( PhaseIncrement_1, &Phase_1 );

  0022c	8b 44 24 48	 mov	 eax, DWORD PTR _PhaseIncrement_1$[esp+96]
  00230	8b 4c 24 44	 mov	 ecx, DWORD PTR _PhaseIncrement_1$[esp+92]
  00234	8d 54 24 54	 lea	 edx, DWORD PTR _Phase_1$[esp+92]
  00238	52		 push	 edx
  00239	50		 push	 eax
  0023a	dd 5c 24 54	 fstp	 QWORD PTR _Sample$[esp+100]
  0023e	51		 push	 ecx
  0023f	e8 00 00 00 00	 call	 _Tone
  00244	dc 4d 2c	 fmul	 QWORD PTR _Amp_1$[ebp]
  00247	83 c4 18	 add	 esp, 24			; 00000018H
  0024a	dc 44 24 40	 fadd	 QWORD PTR _Sample$[esp+80]

; 274  :       *pBuffer++ = (short)Sample;

  0024e	e8 00 00 00 00	 call	 __ftol
  00253	66 89 06	 mov	 WORD PTR [esi], ax
  00256	8b 44 24 24	 mov	 eax, DWORD PTR -44+[esp+80]
  0025a	83 c6 02	 add	 esi, 2
  0025d	48		 dec	 eax
  0025e	89 44 24 24	 mov	 DWORD PTR -44+[esp+80], eax
  00262	75 b5		 jne	 SHORT $L70827
$L70829:

; 275  :     }
; 276  : 
; 277  :     iCenterCount += iSynthCount;

  00264	8b 74 24 18	 mov	 esi, DWORD PTR _iCenterCount$[esp+80]

; 278  : 
; 279  :     /******************************************************************/
; 280  :     /*  Queue the samples.                                            */
; 281  :     /******************************************************************/
; 282  : 
; 283  :     OutputData( phTTS, pToneBuffer, iSynthCount, TONE_SYMBOL, 0 );

  00268	8b 54 24 10	 mov	 edx, DWORD PTR _pToneBuffer$[esp+80]
  0026c	8b 45 08	 mov	 eax, DWORD PTR _phTTS$[ebp]
  0026f	6a 00		 push	 0
  00271	68 ff 7f 00 00	 push	 32767			; 00007fffH
  00276	57		 push	 edi
  00277	03 f7		 add	 esi, edi
  00279	52		 push	 edx
  0027a	50		 push	 eax
  0027b	89 74 24 2c	 mov	 DWORD PTR _iCenterCount$[esp+100], esi
  0027f	e8 00 00 00 00	 call	 _OutputData
  00284	8b 4c 24 28	 mov	 ecx, DWORD PTR _iCenterSamples$[esp+100]
  00288	8b c6		 mov	 eax, esi
  0028a	83 c4 14	 add	 esp, 20			; 00000014H
  0028d	3b c1		 cmp	 eax, ecx
  0028f	0f 8c 4f ff ff
	ff		 jl	 $L70824
$L70825:

; 284  :   }
; 285  : 
; 286  :   /********************************************************************/
; 287  :   /*  Generate Samples during the fall time portion of the tone.      */
; 288  :   /********************************************************************/
; 289  : 
; 290  :   pBuffer = pToneBuffer;
; 291  : 
; 292  :   for ( i = iRiseSamples - 1; i >= 0; i-- )

  00295	8b 54 24 0c	 mov	 edx, DWORD PTR _iRiseSamples$[esp+80]
  00299	8b 7c 24 10	 mov	 edi, DWORD PTR _pToneBuffer$[esp+80]
  0029d	8d 42 ff	 lea	 eax, DWORD PTR [edx-1]
  002a0	85 c0		 test	 eax, eax
  002a2	7c 5c		 jl	 SHORT $L70833
  002a4	8b 4c 24 1c	 mov	 ecx, DWORD PTR _pRiseBuffer$[esp+80]
  002a8	8d 34 c1	 lea	 esi, DWORD PTR [ecx+eax*8]
  002ab	40		 inc	 eax
  002ac	89 44 24 24	 mov	 DWORD PTR -44+[esp+80], eax
$L70831:

; 293  :   {
; 294  :     Sample  = Amp_0 * Tone( PhaseIncrement_0, &Phase_0 );

  002b0	8b 44 24 30	 mov	 eax, DWORD PTR _PhaseIncrement_0$[esp+80]
  002b4	8d 54 24 28	 lea	 edx, DWORD PTR _Phase_0$[esp+80]
  002b8	52		 push	 edx
  002b9	53		 push	 ebx
  002ba	50		 push	 eax
  002bb	e8 00 00 00 00	 call	 _Tone
  002c0	dc 4d 1c	 fmul	 QWORD PTR _Amp_0$[ebp]

; 295  :     Sample += Amp_1 * Tone( PhaseIncrement_1, &Phase_1 );

  002c3	8b 54 24 48	 mov	 edx, DWORD PTR _PhaseIncrement_1$[esp+96]
  002c7	8b 44 24 44	 mov	 eax, DWORD PTR _PhaseIncrement_1$[esp+92]
  002cb	8d 4c 24 54	 lea	 ecx, DWORD PTR _Phase_1$[esp+92]
  002cf	51		 push	 ecx
  002d0	52		 push	 edx
  002d1	dd 5c 24 54	 fstp	 QWORD PTR _Sample$[esp+100]
  002d5	50		 push	 eax
  002d6	e8 00 00 00 00	 call	 _Tone
  002db	dc 4d 2c	 fmul	 QWORD PTR _Amp_1$[ebp]
  002de	83 c4 18	 add	 esp, 24			; 00000018H
  002e1	dc 44 24 40	 fadd	 QWORD PTR _Sample$[esp+80]

; 296  :     *pBuffer++ = (short)( pRiseBuffer[i] * Sample );

  002e5	dc 0e		 fmul	 QWORD PTR [esi]
  002e7	e8 00 00 00 00	 call	 __ftol
  002ec	66 89 07	 mov	 WORD PTR [edi], ax
  002ef	8b 44 24 24	 mov	 eax, DWORD PTR -44+[esp+80]
  002f3	83 c7 02	 add	 edi, 2
  002f6	83 ee 08	 sub	 esi, 8
  002f9	48		 dec	 eax
  002fa	89 44 24 24	 mov	 DWORD PTR -44+[esp+80], eax
  002fe	75 b0		 jne	 SHORT $L70831
$L70833:

; 297  :   }
; 298  : 
; 299  :   /********************************************************************/
; 300  :   /*  Play the fall time portion of the tone waveform.                */
; 301  :   /********************************************************************/
; 302  : 
; 303  :   OutputData( phTTS, pToneBuffer, iRiseSamples, TONE_SYMBOL, 0 );

  00300	8b 4c 24 0c	 mov	 ecx, DWORD PTR _iRiseSamples$[esp+80]
  00304	8b 7c 24 10	 mov	 edi, DWORD PTR _pToneBuffer$[esp+80]
  00308	8b 55 08	 mov	 edx, DWORD PTR _phTTS$[ebp]
  0030b	6a 00		 push	 0
  0030d	68 ff 7f 00 00	 push	 32767			; 00007fffH
  00312	51		 push	 ecx
  00313	57		 push	 edi
  00314	52		 push	 edx
  00315	e8 00 00 00 00	 call	 _OutputData

; 304  : 
; 305  :   /********************************************************************/
; 306  :   /*  Free the rise gain buffer and the tone audio buffer.            */
; 307  :   /********************************************************************/
; 308  : 
; 309  :   free( pRiseBuffer );

  0031a	8b 44 24 30	 mov	 eax, DWORD PTR _pRiseBuffer$[esp+100]
  0031e	8b 35 00 00 00
	00		 mov	 esi, DWORD PTR __imp__free
  00324	50		 push	 eax
  00325	ff d6		 call	 esi

; 310  :   free( pToneBuffer );

  00327	57		 push	 edi
  00328	ff d6		 call	 esi
  0032a	83 c4 1c	 add	 esp, 28			; 0000001cH

; 311  : 
; 312  :   return( FALSE );

  0032d	33 c0		 xor	 eax, eax

; 313  : }

  0032f	5f		 pop	 edi
  00330	5e		 pop	 esi
  00331	5b		 pop	 ebx
  00332	8b e5		 mov	 esp, ebp
  00334	5d		 pop	 ebp
  00335	c3		 ret	 0
_PlayTones ENDP
_PhaseIncrement$ = 8
_pPhase$ = 16
_Tone	PROC NEAR

; 344  : {

  00340	56		 push	 esi

; 345  :   double Sample;
; 346  : 
; 347  :   /********************************************************************/
; 348  :   /*  Synthesize tone sample 1.                                       */
; 349  :   /********************************************************************/
; 350  : 
; 351  :   Sample = SineTable[(int)*pPhase];

  00341	8b 74 24 10	 mov	 esi, DWORD PTR _pPhase$[esp]
  00345	dd 06		 fld	 QWORD PTR [esi]
  00347	e8 00 00 00 00	 call	 __ftol
  0034c	dd 04 c5 00 00
	00 00		 fld	 QWORD PTR _SineTable[eax*8]

; 352  : 
; 353  :   *pPhase += PhaseIncrement;

  00353	dd 44 24 08	 fld	 QWORD PTR _PhaseIncrement$[esp]
  00357	dc 06		 fadd	 QWORD PTR [esi]

; 354  : 
; 355  :   if ( *pPhase >= TWO_PI_EQUIVALENT )

  00359	dc 15 00 00 00
	00		 fcom	 QWORD PTR __real@8@40098000000000000000
  0035f	dd 16		 fst	 QWORD PTR [esi]
  00361	df e0		 fnstsw	 ax
  00363	f6 c4 01	 test	 ah, 1
  00366	75 0a		 jne	 SHORT $L70875

; 356  :     *pPhase -= TWO_PI_EQUIVALENT;

  00368	dc 25 00 00 00
	00		 fsub	 QWORD PTR __real@8@40098000000000000000
  0036e	dd 1e		 fstp	 QWORD PTR [esi]
  00370	5e		 pop	 esi

; 357  : 
; 358  :   return( Sample );
; 359  : }

  00371	c3		 ret	 0
$L70875:

; 354  : 
; 355  :   if ( *pPhase >= TWO_PI_EQUIVALENT )

  00372	dd d8		 fstp	 ST(0)
  00374	5e		 pop	 esi

; 357  : 
; 358  :   return( Sample );
; 359  : }

  00375	c3		 ret	 0
_Tone	ENDP
_TEXT	ENDS
END
